---
triple:          'arm64-apple-darwin'
binary-path:     toy
relocations:
  - { offset: 0x44, size: 0x8, addend: 0x0, symName: __ZN4llvm30VerifyDisableABIBreakingChecksE, symObjAddr: 0x12008, symBinAddr: 0x10001C000, symSize: 0x0 }
  - { offset: 0xE7E1, size: 0x8, addend: 0x0, symName: __ZN4llvm6detail18UniqueFunctionBaseINSt3__110unique_ptrINS_11RuntimeDyld13MemoryManagerENS2_14default_deleteIS5_EEEEJEE15CallbacksHolderIZNS_3orc15KaleidoscopeJITC1ENS3_INSB_16ExecutionSessionENS6_ISD_EEEENSB_23JITTargetMachineBuilderENS_10DataLayoutEEUlvE_SI_vE9CallbacksE, symObjAddr: 0x12018, symBinAddr: 0x10001C010, symSize: 0x0 }
  - { offset: 0xFC665, size: 0x8, addend: 0x0, symName: __ZN4llvm24InitializeAllTargetInfosEv, symObjAddr: 0x4BD4, symBinAddr: 0x100008728, symSize: 0x58 }
  - { offset: 0xFC78B, size: 0x8, addend: 0x0, symName: __ZN4llvm20InitializeAllTargetsEv, symObjAddr: 0x4C2C, symBinAddr: 0x100008780, symSize: 0x5C }
  - { offset: 0xFC8BF, size: 0x8, addend: 0x0, symName: __ZN4llvm22InitializeAllTargetMCsEv, symObjAddr: 0x4C88, symBinAddr: 0x1000087DC, symSize: 0x58 }
  - { offset: 0xFC9E5, size: 0x8, addend: 0x0, symName: __ZN4llvm24InitializeAllAsmPrintersEv, symObjAddr: 0x4CE0, symBinAddr: 0x100008834, symSize: 0x58 }
  - { offset: 0xFD840, size: 0x8, addend: 0x0, symName: __ZN4llvm8erase_ifINS_11SmallVectorINSt3__14pairIjPNS_6MDNodeEEELj2EEEZNS_13IRBuilderBase25AddOrRemoveMetadataToCopyEjS5_EUlRKS6_E_EEvRT_T0_, symObjAddr: 0x6790, symBinAddr: 0x10000A2E4, symSize: 0x13C }
  - { offset: 0xFDC5A, size: 0x8, addend: 0x0, symName: __ZN4llvm23SmallVectorTemplateBaseINSt3__14pairIjPNS_6MDNodeEEELb1EE18growAndEmplaceBackIJRjRS4_EEERS5_DpOT_, symObjAddr: 0x68CC, symBinAddr: 0x10000A420, symSize: 0xB4 }
  - { offset: 0xFE489, size: 0x8, addend: 0x0, symName: __ZN4llvm8cantFailINSt3__110unique_ptrINS_3orc29DynamicLibrarySearchGeneratorENS1_14default_deleteIS4_EEEEEET_NS_8ExpectedIS8_EEPKc, symObjAddr: 0x876C, symBinAddr: 0x10000C2C0, symSize: 0x108 }
  - { offset: 0xFEB0F, size: 0x8, addend: 0x0, symName: __ZN4llvmlsERNS_11raw_ostreamERKNS_5ErrorE, symObjAddr: 0x8F08, symBinAddr: 0x10000CA5C, symSize: 0xA0 }
  - { offset: 0xFF5DF, size: 0x8, addend: 0x0, symName: __MergedGlobals, symObjAddr: 0x922BE8, symBinAddr: 0x10001C018, symSize: 0x0 }
  - { offset: 0x185C32, size: 0x8, addend: 0x0, symName: __ZNSt3__119piecewise_constructE, symObjAddr: 0x1332F, symBinAddr: 0x10001692F, symSize: 0x0 }
  - { offset: 0x193855, size: 0x8, addend: 0x0, symName: __ZNSt3__127__tree_balance_after_insertB8ne190102IPNS_16__tree_node_baseIPvEEEEvT_S5_, symObjAddr: 0x10240, symBinAddr: 0x100013D94, symSize: 0x1B4 }
  - { offset: 0x193CE9, size: 0x8, addend: 0x0, symName: __ZNSt3__111make_uniqueB8ne190102I12PrototypeASTJRA12_KcNS_6vectorINS_12basic_stringIcNS_11char_traitsIcEENS_9allocatorIcEEEENS9_ISB_EEEEEEENS_11__unique_ifIT_E15__unique_singleEDpOT0_, symObjAddr: 0xFBDC, symBinAddr: 0x100013730, symSize: 0x194 }
  - { offset: 0x194525, size: 0x8, addend: 0x0, symName: __ZNSt3__1eqB8ne190102IcNS_11char_traitsIcEENS_9allocatorIcEEEEbRKNS_12basic_stringIT_T0_T1_EEPKS6_, symObjAddr: 0x7350, symBinAddr: 0x10000AEA4, symSize: 0x8C }
  - { offset: 0x194726, size: 0x8, addend: 0x0, symName: __ZNSt3__111make_uniqueB8ne190102IN4llvm3orc15KaleidoscopeJITEJNS_10unique_ptrINS2_16ExecutionSessionENS_14default_deleteIS5_EEEENS2_23JITTargetMachineBuilderENS1_10DataLayoutEEEENS_11__unique_ifIT_E15__unique_singleEDpOT0_, symObjAddr: 0x7604, symBinAddr: 0x10000B158, symSize: 0x284 }
  - { offset: 0x195AB3, size: 0x8, addend: 0x0, symName: __ZNSt3__120__throw_out_of_rangeB8ne190102EPKc, symObjAddr: 0x73F0, symBinAddr: 0x10000AF44, symSize: 0x50 }
  - { offset: 0x1969AC, size: 0x8, addend: 0x0, symName: __ZNSt3__111make_uniqueB8ne190102IN4llvm3orc20ConcurrentIRCompilerEJNS2_23JITTargetMachineBuilderEEEENS_11__unique_ifIT_E15__unique_singleEDpOT0_, symObjAddr: 0x857C, symBinAddr: 0x10000C0D0, symSize: 0x1F0 }
  - { offset: 0x1974B8, size: 0x8, addend: 0x0, symName: __ZNSt3__120__throw_length_errorB8ne190102EPKc, symObjAddr: 0x8D74, symBinAddr: 0x10000C8C8, symSize: 0x50 }
  - { offset: 0x199005, size: 0x8, addend: 0x0, symName: __ZNSt3__111make_uniqueB8ne190102I10ForExprASTJRNS_12basic_stringIcNS_11char_traitsIcEENS_9allocatorIcEEEENS_10unique_ptrI7ExprASTNS_14default_deleteISA_EEEESD_SD_SD_EEENS_11__unique_ifIT_E15__unique_singleEDpOT0_, symObjAddr: 0xF2E8, symBinAddr: 0x100012E3C, symSize: 0x138 }
  - { offset: 0x1996D7, size: 0x8, addend: 0x0, symName: __ZNSt3__125__throw_bad_function_callB8ne190102Ev, symObjAddr: 0xF6B4, symBinAddr: 0x100013208, symSize: 0x34 }
  - { offset: 0x199E12, size: 0x8, addend: 0x0, symName: __ZNSt3__113__tree_removeB8ne190102IPNS_16__tree_node_baseIPvEEEEvT_S5_, symObjAddr: 0x108B8, symBinAddr: 0x10001440C, symSize: 0x3C8 }
  - { offset: 0x19EE9F, size: 0x8, addend: 0x0, symName: __ZSt28__throw_bad_array_new_lengthB8ne190102v, symObjAddr: 0x6320, symBinAddr: 0x100009E74, symSize: 0x28 }
  - { offset: 0x19F0EE, size: 0x8, addend: 0x0, symName: __MergedGlobals, symObjAddr: 0x922BE8, symBinAddr: 0x10001C018, symSize: 0x0 }
  - { offset: 0x19F593, size: 0x8, addend: 0x0, symName: __MergedGlobals, symObjAddr: 0x922BE8, symBinAddr: 0x10001C018, symSize: 0x0 }
  - { offset: 0x1A5076, size: 0x8, addend: 0x0, symName: __MergedGlobals, symObjAddr: 0x922BE8, symBinAddr: 0x10001C018, symSize: 0x0 }
  - { offset: 0x1A5141, size: 0x8, addend: 0x0, symName: __MergedGlobals, symObjAddr: 0x922BE8, symBinAddr: 0x10001C018, symSize: 0x0 }
  - { offset: 0x1A5D4B, size: 0x8, addend: 0x0, symName: __MergedGlobals, symObjAddr: 0x922BE8, symBinAddr: 0x10001C018, symSize: 0x0 }
  - { offset: 0x1A619B, size: 0x8, addend: 0x0, symName: __MergedGlobals, symObjAddr: 0x922BE8, symBinAddr: 0x10001C018, symSize: 0x0 }
  - { offset: 0x1B9272, size: 0x8, addend: 0x0, symName: __MergedGlobals, symObjAddr: 0x922BE8, symBinAddr: 0x10001C018, symSize: 0x0 }
  - { offset: 0x1B9343, size: 0x8, addend: 0x0, symName: __MergedGlobals, symObjAddr: 0x922BE8, symBinAddr: 0x10001C018, symSize: 0x0 }
  - { offset: 0x1B9414, size: 0x8, addend: 0x0, symName: __MergedGlobals, symObjAddr: 0x922BE8, symBinAddr: 0x10001C018, symSize: 0x0 }
  - { offset: 0x1B94E5, size: 0x8, addend: 0x0, symName: __MergedGlobals, symObjAddr: 0x922BE8, symBinAddr: 0x10001C018, symSize: 0x0 }
  - { offset: 0x1B95B6, size: 0x8, addend: 0x0, symName: __MergedGlobals, symObjAddr: 0x922BE8, symBinAddr: 0x10001C018, symSize: 0x0 }
  - { offset: 0x1B9687, size: 0x8, addend: 0x0, symName: __MergedGlobals, symObjAddr: 0x922BE8, symBinAddr: 0x10001C018, symSize: 0x0 }
  - { offset: 0x1B9758, size: 0x8, addend: 0x0, symName: __MergedGlobals, symObjAddr: 0x922BE8, symBinAddr: 0x10001C018, symSize: 0x0 }
  - { offset: 0x1BA660, size: 0x8, addend: 0x0, symName: __MergedGlobals, symObjAddr: 0x922BE8, symBinAddr: 0x10001C018, symSize: 0x0 }
  - { offset: 0x1BA70E, size: 0x8, addend: 0x0, symName: __MergedGlobals, symObjAddr: 0x922BE8, symBinAddr: 0x10001C018, symSize: 0x0 }
  - { offset: 0x1BACDF, size: 0x8, addend: 0x0, symName: __MergedGlobals, symObjAddr: 0x922BE8, symBinAddr: 0x10001C018, symSize: 0x0 }
  - { offset: 0x1BACFB, size: 0x8, addend: 0x0, symName: __MergedGlobals, symObjAddr: 0x922BE8, symBinAddr: 0x10001C018, symSize: 0x0 }
  - { offset: 0x1BAD09, size: 0x8, addend: 0x0, symName: __ZN4llvm3orc15KaleidoscopeJITC2ENSt3__110unique_ptrINS0_16ExecutionSessionENS2_14default_deleteIS4_EEEENS0_23JITTargetMachineBuilderENS_10DataLayoutE, symObjAddr: 0x8070, symBinAddr: 0x10000BBC4, symSize: 0x4A0 }
  - { offset: 0x1BF3AE, size: 0x8, addend: 0x0, symName: __Z8LogErrorPKc, symObjAddr: 0x0, symBinAddr: 0x100003B54, symSize: 0x48 }
  - { offset: 0x1BF7CF, size: 0x8, addend: 0x0, symName: __Z9LogErrorPPKc, symObjAddr: 0x48, symBinAddr: 0x100003B9C, symSize: 0x48 }
  - { offset: 0x1BF8C0, size: 0x8, addend: 0x0, symName: __Z9LogErrorVPKc, symObjAddr: 0x90, symBinAddr: 0x100003BE4, symSize: 0x3C }
  - { offset: 0x1BF987, size: 0x8, addend: 0x0, symName: __ZNSt3__13mapIciNS_4lessIcEENS_9allocatorINS_4pairIKciEEEEED1B8ne190102Ev, symObjAddr: 0xCC, symBinAddr: 0x100003C20, symSize: 0x28 }
  - { offset: 0x1BFA45, size: 0x8, addend: 0x0, symName: __ZNSt3__16__treeINS_12__value_typeIciEENS_19__map_value_compareIcS2_NS_4lessIcEELb1EEENS_9allocatorIS2_EEE7destroyEPNS_11__tree_nodeIS2_PvEE, symObjAddr: 0x101F8, symBinAddr: 0x100013D4C, symSize: 0x48 }
  - { offset: 0x1BFC07, size: 0x8, addend: 0x0, symName: __ZNSt3__110unique_ptrIN4llvm11LLVMContextENS_14default_deleteIS2_EEED1B8ne190102Ev, symObjAddr: 0xF4, symBinAddr: 0x100003C48, symSize: 0x40 }
  - { offset: 0x1BFD20, size: 0x8, addend: 0x0, symName: __ZNSt3__110unique_ptrIN4llvm6ModuleENS_14default_deleteIS2_EEED1B8ne190102Ev, symObjAddr: 0x134, symBinAddr: 0x100003C88, symSize: 0x40 }
  - { offset: 0x1BFF5F, size: 0x8, addend: 0x0, symName: __ZNSt3__110unique_ptrIN4llvm9IRBuilderINS1_14ConstantFolderENS1_24IRBuilderDefaultInserterEEENS_14default_deleteIS5_EEED1B8ne190102Ev, symObjAddr: 0x174, symBinAddr: 0x100003CC8, symSize: 0x5C }
  - { offset: 0x1C01BD, size: 0x8, addend: 0x0, symName: __ZNSt3__13mapINS_12basic_stringIcNS_11char_traitsIcEENS_9allocatorIcEEEEPN4llvm10AllocaInstENS_4lessIS6_EENS4_INS_4pairIKS6_S9_EEEEED1B8ne190102Ev, symObjAddr: 0x1D0, symBinAddr: 0x100003D24, symSize: 0x28 }
  - { offset: 0x1C027B, size: 0x8, addend: 0x0, symName: __ZNSt3__16__treeINS_12__value_typeINS_12basic_stringIcNS_11char_traitsIcEENS_9allocatorIcEEEEPN4llvm10AllocaInstEEENS_19__map_value_compareIS7_SB_NS_4lessIS7_EELb1EEENS5_ISB_EEE7destroyEPNS_11__tree_nodeISB_PvEE, symObjAddr: 0x103F4, symBinAddr: 0x100013F48, symSize: 0x70 }
  - { offset: 0x1C05E7, size: 0x8, addend: 0x0, symName: __ZNSt3__110unique_ptrIN4llvm3orc15KaleidoscopeJITENS_14default_deleteIS3_EEED1B8ne190102Ev, symObjAddr: 0x1F8, symBinAddr: 0x100003D4C, symSize: 0x40 }
  - { offset: 0x1C06B4, size: 0x8, addend: 0x0, symName: __ZN4llvm3orc15KaleidoscopeJITD2Ev, symObjAddr: 0x100B4, symBinAddr: 0x100013C08, symSize: 0x144 }
  - { offset: 0x1C0ED3, size: 0x8, addend: 0x0, symName: __ZNSt3__110unique_ptrIN4llvm11PassManagerINS1_8FunctionENS1_15AnalysisManagerIS3_JEEEJEEENS_14default_deleteIS6_EEED1B8ne190102Ev, symObjAddr: 0x238, symBinAddr: 0x100003D8C, symSize: 0x94 }
  - { offset: 0x1C12A2, size: 0x8, addend: 0x0, symName: __ZNSt3__110unique_ptrIN4llvm15AnalysisManagerINS1_4LoopEJRNS1_27LoopStandardAnalysisResultsEEEENS_14default_deleteIS6_EEED1B8ne190102Ev, symObjAddr: 0x2CC, symBinAddr: 0x100003E20, symSize: 0x30 }
  - { offset: 0x1C12D0, size: 0x8, addend: 0x0, symName: __ZNSt3__110unique_ptrIN4llvm15AnalysisManagerINS1_4LoopEJRNS1_27LoopStandardAnalysisResultsEEEENS_14default_deleteIS6_EEED1B8ne190102Ev, symObjAddr: 0x2CC, symBinAddr: 0x100003E20, symSize: 0x30 }
  - { offset: 0x1C12F0, size: 0x8, addend: 0x0, symName: __ZNSt3__110unique_ptrIN4llvm15AnalysisManagerINS1_4LoopEJRNS1_27LoopStandardAnalysisResultsEEEENS_14default_deleteIS6_EEED1B8ne190102Ev, symObjAddr: 0x2CC, symBinAddr: 0x100003E20, symSize: 0x30 }
  - { offset: 0x1C132E, size: 0x8, addend: 0x0, symName: __ZNKSt3__114default_deleteIN4llvm15AnalysisManagerINS1_4LoopEJRNS1_27LoopStandardAnalysisResultsEEEEEclB8ne190102EPS6_, symObjAddr: 0x94D0, symBinAddr: 0x10000D024, symSize: 0xD4 }
  - { offset: 0x1C15CB, size: 0x8, addend: 0x0, symName: __ZNSt3__110unique_ptrIN4llvm15AnalysisManagerINS1_8FunctionEJEEENS_14default_deleteIS4_EEED1B8ne190102Ev, symObjAddr: 0x2FC, symBinAddr: 0x100003E50, symSize: 0x30 }
  - { offset: 0x1C15F1, size: 0x8, addend: 0x0, symName: __ZNSt3__110unique_ptrIN4llvm15AnalysisManagerINS1_8FunctionEJEEENS_14default_deleteIS4_EEED1B8ne190102Ev, symObjAddr: 0x2FC, symBinAddr: 0x100003E50, symSize: 0x30 }
  - { offset: 0x1C1611, size: 0x8, addend: 0x0, symName: __ZNSt3__110unique_ptrIN4llvm15AnalysisManagerINS1_8FunctionEJEEENS_14default_deleteIS4_EEED1B8ne190102Ev, symObjAddr: 0x2FC, symBinAddr: 0x100003E50, symSize: 0x30 }
  - { offset: 0x1C164F, size: 0x8, addend: 0x0, symName: __ZNKSt3__114default_deleteIN4llvm15AnalysisManagerINS1_8FunctionEJEEEEclB8ne190102EPS4_, symObjAddr: 0x9690, symBinAddr: 0x10000D1E4, symSize: 0xD4 }
  - { offset: 0x1C18F0, size: 0x8, addend: 0x0, symName: __ZNSt3__110unique_ptrIN4llvm15AnalysisManagerINS1_13LazyCallGraph3SCCEJRS3_EEENS_14default_deleteIS6_EEED1B8ne190102Ev, symObjAddr: 0x32C, symBinAddr: 0x100003E80, symSize: 0x30 }
  - { offset: 0x1C1916, size: 0x8, addend: 0x0, symName: __ZNSt3__110unique_ptrIN4llvm15AnalysisManagerINS1_13LazyCallGraph3SCCEJRS3_EEENS_14default_deleteIS6_EEED1B8ne190102Ev, symObjAddr: 0x32C, symBinAddr: 0x100003E80, symSize: 0x30 }
  - { offset: 0x1C1936, size: 0x8, addend: 0x0, symName: __ZNSt3__110unique_ptrIN4llvm15AnalysisManagerINS1_13LazyCallGraph3SCCEJRS3_EEENS_14default_deleteIS6_EEED1B8ne190102Ev, symObjAddr: 0x32C, symBinAddr: 0x100003E80, symSize: 0x30 }
  - { offset: 0x1C1974, size: 0x8, addend: 0x0, symName: __ZNKSt3__114default_deleteIN4llvm15AnalysisManagerINS1_13LazyCallGraph3SCCEJRS3_EEEEclB8ne190102EPS6_, symObjAddr: 0x9850, symBinAddr: 0x10000D3A4, symSize: 0xD4 }
  - { offset: 0x1C1C15, size: 0x8, addend: 0x0, symName: __ZNSt3__110unique_ptrIN4llvm15AnalysisManagerINS1_6ModuleEJEEENS_14default_deleteIS4_EEED1B8ne190102Ev, symObjAddr: 0x35C, symBinAddr: 0x100003EB0, symSize: 0x30 }
  - { offset: 0x1C1C3B, size: 0x8, addend: 0x0, symName: __ZNSt3__110unique_ptrIN4llvm15AnalysisManagerINS1_6ModuleEJEEENS_14default_deleteIS4_EEED1B8ne190102Ev, symObjAddr: 0x35C, symBinAddr: 0x100003EB0, symSize: 0x30 }
  - { offset: 0x1C1C5B, size: 0x8, addend: 0x0, symName: __ZNSt3__110unique_ptrIN4llvm15AnalysisManagerINS1_6ModuleEJEEENS_14default_deleteIS4_EEED1B8ne190102Ev, symObjAddr: 0x35C, symBinAddr: 0x100003EB0, symSize: 0x30 }
  - { offset: 0x1C1C99, size: 0x8, addend: 0x0, symName: __ZNKSt3__114default_deleteIN4llvm15AnalysisManagerINS1_6ModuleEJEEEEclB8ne190102EPS4_, symObjAddr: 0x9A10, symBinAddr: 0x10000D564, symSize: 0xD4 }
  - { offset: 0x1C1F7E, size: 0x8, addend: 0x0, symName: __ZNSt3__110unique_ptrIN4llvm28PassInstrumentationCallbacksENS_14default_deleteIS2_EEED1B8ne190102Ev, symObjAddr: 0x38C, symBinAddr: 0x100003EE0, symSize: 0x40 }
  - { offset: 0x1C2053, size: 0x8, addend: 0x0, symName: __ZN4llvm28PassInstrumentationCallbacksD2Ev, symObjAddr: 0x9BD0, symBinAddr: 0x10000D724, symSize: 0x59C }
  - { offset: 0x1C3F93, size: 0x8, addend: 0x0, symName: __ZNSt3__110unique_ptrIN4llvm24StandardInstrumentationsENS_14default_deleteIS2_EEED1B8ne190102Ev, symObjAddr: 0x3CC, symBinAddr: 0x100003F20, symSize: 0x40 }
  - { offset: 0x1C4068, size: 0x8, addend: 0x0, symName: __ZN4llvm24StandardInstrumentationsD2Ev, symObjAddr: 0xA16C, symBinAddr: 0x10000DCC0, symSize: 0xB0 }
  - { offset: 0x1C45E9, size: 0x8, addend: 0x0, symName: __ZN4llvm11ExitOnErrorD1Ev, symObjAddr: 0x40C, symBinAddr: 0x100003F60, symSize: 0x74 }
  - { offset: 0x1C487C, size: 0x8, addend: 0x0, symName: __ZNSt3__13mapINS_12basic_stringIcNS_11char_traitsIcEENS_9allocatorIcEEEENS_10unique_ptrI12PrototypeASTNS_14default_deleteIS8_EEEENS_4lessIS6_EENS4_INS_4pairIKS6_SB_EEEEED1B8ne190102Ev, symObjAddr: 0x480, symBinAddr: 0x100003FD4, symSize: 0x28 }
  - { offset: 0x1C493A, size: 0x8, addend: 0x0, symName: __ZNSt3__16__treeINS_12__value_typeINS_12basic_stringIcNS_11char_traitsIcEENS_9allocatorIcEEEENS_10unique_ptrI12PrototypeASTNS_14default_deleteIS9_EEEEEENS_19__map_value_compareIS7_SD_NS_4lessIS7_EELb1EEENS5_ISD_EEE7destroyEPNS_11__tree_nodeISD_PvEE, symObjAddr: 0x10464, symBinAddr: 0x100013FB8, symSize: 0x7C }
  - { offset: 0x1C4F44, size: 0x8, addend: 0x0, symName: __Z11getFunctionNSt3__112basic_stringIcNS_11char_traitsIcEENS_9allocatorIcEEEE, symObjAddr: 0x4A8, symBinAddr: 0x100003FFC, symSize: 0x18C }
  - { offset: 0x1C5483, size: 0x8, addend: 0x0, symName: __ZN12PrototypeAST7codegenEv, symObjAddr: 0x634, symBinAddr: 0x100004188, symSize: 0x258 }
  - { offset: 0x1C6239, size: 0x8, addend: 0x0, symName: __ZNKSt3__16vectorIPN4llvm4TypeENS_9allocatorIS3_EEE20__throw_length_errorB8ne190102Ev, symObjAddr: 0x10C94, symBinAddr: 0x1000147E8, symSize: 0x14 }
  - { offset: 0x1C6263, size: 0x8, addend: 0x0, symName: __ZNSt3__16__treeINS_12__value_typeINS_12basic_stringIcNS_11char_traitsIcEENS_9allocatorIcEEEENS_10unique_ptrI12PrototypeASTNS_14default_deleteIS9_EEEEEENS_19__map_value_compareIS7_SD_NS_4lessIS7_EELb1EEENS5_ISD_EEE25__emplace_unique_key_argsIS7_JRKNS_21piecewise_construct_tENS_5tupleIJRKS7_EEENSO_IJEEEEEENS_4pairINS_15__tree_iteratorISD_PNS_11__tree_nodeISD_PvEElEEbEERKT_DpOT0_, symObjAddr: 0x10CA8, symBinAddr: 0x1000147FC, symSize: 0x1B4 }
  - { offset: 0x1C63C7, size: 0x8, addend: 0x0, symName: __ZN13NumberExprAST7codegenEv, symObjAddr: 0x88C, symBinAddr: 0x1000043E0, symSize: 0x104 }
  - { offset: 0x1C6551, size: 0x8, addend: 0x0, symName: __ZNSt3__110unique_ptrIA_N4llvm7APFloatENS_14default_deleteIS3_EEE5resetB8ne190102EDn, symObjAddr: 0x6348, symBinAddr: 0x100009E9C, symSize: 0xB4 }
  - { offset: 0x1C668B, size: 0x8, addend: 0x0, symName: __ZN4llvm7APFloatD1Ev, symObjAddr: 0x990, symBinAddr: 0x1000044E4, symSize: 0x64 }
  - { offset: 0x1C68F6, size: 0x8, addend: 0x0, symName: __ZN15VariableExprAST7codegenEv, symObjAddr: 0x9F4, symBinAddr: 0x100004548, symSize: 0xCC }
  - { offset: 0x1C6B76, size: 0x8, addend: 0x0, symName: __ZNSt3__16__treeINS_12__value_typeINS_12basic_stringIcNS_11char_traitsIcEENS_9allocatorIcEEEEPN4llvm10AllocaInstEEENS_19__map_value_compareIS7_SB_NS_4lessIS7_EELb1EEENS5_ISB_EEE25__emplace_unique_key_argsIS7_JRKNS_21piecewise_construct_tENS_5tupleIJRKS7_EEENSM_IJEEEEEENS_4pairINS_15__tree_iteratorISB_PNS_11__tree_nodeISB_PvEElEEbEERKT_DpOT0_, symObjAddr: 0x104E0, symBinAddr: 0x100014034, symSize: 0x1B4 }
  - { offset: 0x1C72A2, size: 0x8, addend: 0x0, symName: __ZN4llvm13IRBuilderBase17CreateAlignedLoadEPNS_4TypeEPNS_5ValueENS_10MaybeAlignEbRKNS_5TwineE, symObjAddr: 0x63FC, symBinAddr: 0x100009F50, symSize: 0x100 }
  - { offset: 0x1C7A16, size: 0x8, addend: 0x0, symName: __ZN10VarExprAST7codegenEv, symObjAddr: 0xAC0, symBinAddr: 0x100004614, symSize: 0x3B4 }
  - { offset: 0x1C86E9, size: 0x8, addend: 0x0, symName: __ZL22CreateEntryBlockAllocaPN4llvm8FunctionERKNSt3__112basic_stringIcNS2_11char_traitsIcEENS2_9allocatorIcEEEE, symObjAddr: 0xE74, symBinAddr: 0x1000049C8, symSize: 0x1A0 }
  - { offset: 0x1C8D84, size: 0x8, addend: 0x0, symName: __ZN4llvm13IRBuilderBase18CreateAlignedStoreEPNS_5ValueES2_NS_10MaybeAlignEb, symObjAddr: 0x6980, symBinAddr: 0x10000A4D4, symSize: 0xF0 }
  - { offset: 0x1C8FD6, size: 0x8, addend: 0x0, symName: __ZNKSt3__16vectorIPN4llvm10AllocaInstENS_9allocatorIS3_EEE20__throw_length_errorB8ne190102Ev, symObjAddr: 0x10700, symBinAddr: 0x100014254, symSize: 0x14 }
  - { offset: 0x1C9000, size: 0x8, addend: 0x0, symName: __ZNSt3__16__treeINS_12__value_typeINS_12basic_stringIcNS_11char_traitsIcEENS_9allocatorIcEEEEPN4llvm10AllocaInstEEENS_19__map_value_compareIS7_SB_NS_4lessIS7_EELb1EEENS5_ISB_EEE14__erase_uniqueIS7_EEmRKT_, symObjAddr: 0x10714, symBinAddr: 0x100014268, symSize: 0x1A4 }
  - { offset: 0x1C93DE, size: 0x8, addend: 0x0, symName: __ZN4llvm13IRBuilderBase14SetInsertPointEPNS_10BasicBlockENS_21ilist_iterator_w_bitsINS_12ilist_detail12node_optionsINS_11InstructionELb0ELb0EvLb1ES1_EELb0ELb0EEE, symObjAddr: 0x663C, symBinAddr: 0x10000A190, symSize: 0x124 }
  - { offset: 0x1C992C, size: 0x8, addend: 0x0, symName: __ZN4llvm13IRBuilderBase12CreateAllocaEPNS_4TypeEPNS_5ValueERKNS_5TwineE, symObjAddr: 0x64FC, symBinAddr: 0x10000A050, symSize: 0xFC }
  - { offset: 0x1C9B7C, size: 0x8, addend: 0x0, symName: __ZN4llvm9IRBuilderINS_14ConstantFolderENS_24IRBuilderDefaultInserterEED1Ev, symObjAddr: 0x65F8, symBinAddr: 0x10000A14C, symSize: 0x44 }
  - { offset: 0x1CA099, size: 0x8, addend: 0x0, symName: __ZN13BinaryExprAST7codegenEv, symObjAddr: 0x1014, symBinAddr: 0x100004B68, symSize: 0x45C }
  - { offset: 0x1CB084, size: 0x8, addend: 0x0, symName: __ZN4llvm13IRBuilderBase12CreateUIToFPEPNS_5ValueEPNS_4TypeERKNS_5TwineEb, symObjAddr: 0x19D0, symBinAddr: 0x100005524, symSize: 0x150 }
  - { offset: 0x1CB2E4, size: 0x8, addend: 0x0, symName: __ZN4llvm13IRBuilderBase10CreateFAddEPNS_5ValueES2_RKNS_5TwineEPNS_6MDNodeE, symObjAddr: 0x1470, symBinAddr: 0x100004FC4, symSize: 0x158 }
  - { offset: 0x1CB546, size: 0x8, addend: 0x0, symName: __ZN4llvm13IRBuilderBase10CreateFSubEPNS_5ValueES2_RKNS_5TwineEPNS_6MDNodeE, symObjAddr: 0x15C8, symBinAddr: 0x10000511C, symSize: 0x158 }
  - { offset: 0x1CB7A8, size: 0x8, addend: 0x0, symName: __ZN4llvm13IRBuilderBase10CreateFDivEPNS_5ValueES2_RKNS_5TwineEPNS_6MDNodeE, symObjAddr: 0x1878, symBinAddr: 0x1000053CC, symSize: 0x158 }
  - { offset: 0x1CBA0A, size: 0x8, addend: 0x0, symName: __ZN4llvm13IRBuilderBase10CreateFMulEPNS_5ValueES2_RKNS_5TwineEPNS_6MDNodeE, symObjAddr: 0x1720, symBinAddr: 0x100005274, symSize: 0x158 }
  - { offset: 0x1CBC6C, size: 0x8, addend: 0x0, symName: __ZN4llvm13IRBuilderBase10CreateCallEPNS_12FunctionTypeEPNS_5ValueENS_8ArrayRefIS4_EERKNS_5TwineEPNS_6MDNodeE, symObjAddr: 0x6A70, symBinAddr: 0x10000A5C4, symSize: 0x120 }
  - { offset: 0x1CC1DA, size: 0x8, addend: 0x0, symName: __ZN12UnaryExprAST7codegenEv, symObjAddr: 0x1B20, symBinAddr: 0x100005674, symSize: 0x1E4 }
  - { offset: 0x1CCFD7, size: 0x8, addend: 0x0, symName: __ZN9IfExprAST7codegenEv, symObjAddr: 0x1D04, symBinAddr: 0x100005858, symSize: 0x66C }
  - { offset: 0x1CE529, size: 0x8, addend: 0x0, symName: __ZN4llvm13IRBuilderBase9CreatePHIEPNS_4TypeEjRKNS_5TwineE, symObjAddr: 0x2370, symBinAddr: 0x100005EC4, symSize: 0xD8 }
  - { offset: 0x1CE7AD, size: 0x8, addend: 0x0, symName: __ZN4llvm7PHINode16setIncomingValueEjPNS_5ValueE, symObjAddr: 0x7274, symBinAddr: 0x10000ADC8, symSize: 0xDC }
  - { offset: 0x1CE9AA, size: 0x8, addend: 0x0, symName: __ZNSt3__1eqB8ne190102IcNS_11char_traitsIcEENS_9allocatorIcEEEEbRKNS_12basic_stringIT_T0_T1_EEPKS6_, symObjAddr: 0x7350, symBinAddr: 0x10000AEA4, symSize: 0x8C }
  - { offset: 0x1CEA53, size: 0x8, addend: 0x0, symName: __ZN4llvm7PHINode6CreateEPNS_4TypeEjRKNS_5TwineENS_14InsertPositionE, symObjAddr: 0x705C, symBinAddr: 0x10000ABB0, symSize: 0xE4 }
  - { offset: 0x1CEB8D, size: 0x8, addend: 0x0, symName: __ZN4llvm13isa_impl_wrapINS_14FPMathOperatorEPKNS_7PHINodeES4_E4doitERKS4_, symObjAddr: 0x7140, symBinAddr: 0x10000AC94, symSize: 0x134 }
  - { offset: 0x1CEEDF, size: 0x8, addend: 0x0, symName: __ZN4llvm7PHINode16setIncomingValueEjPNS_5ValueE, symObjAddr: 0x7274, symBinAddr: 0x10000ADC8, symSize: 0xDC }
  - { offset: 0x1CEF2C, size: 0x8, addend: 0x0, symName: __ZN10ForExprAST7codegenEv, symObjAddr: 0x2448, symBinAddr: 0x100005F9C, symSize: 0x5A4 }
  - { offset: 0x1CFF65, size: 0x8, addend: 0x0, symName: __ZNSt3__16__treeINS_12__value_typeINS_12basic_stringIcNS_11char_traitsIcEENS_9allocatorIcEEEEPN4llvm10AllocaInstEEENS_19__map_value_compareIS7_SB_NS_4lessIS7_EELb1EEENS5_ISB_EEE14__erase_uniqueIS7_EEmRKT_, symObjAddr: 0x10714, symBinAddr: 0x100014268, symSize: 0x1A4 }
  - { offset: 0x1D0C71, size: 0x8, addend: 0x0, symName: __ZN11CallExprAST7codegenEv, symObjAddr: 0x29EC, symBinAddr: 0x100006540, symSize: 0x33C }
  - { offset: 0x1D1AE5, size: 0x8, addend: 0x0, symName: __ZNSt3__112basic_stringIcNS_11char_traitsIcEENS_9allocatorIcEEE25__init_copy_ctor_externalEPKcm, symObjAddr: 0x10028, symBinAddr: 0x100013B7C, symSize: 0x8C }
  - { offset: 0x1D1CC0, size: 0x8, addend: 0x0, symName: __ZN4llvm3orc15KaleidoscopeJITD2Ev, symObjAddr: 0x100B4, symBinAddr: 0x100013C08, symSize: 0x144 }
  - { offset: 0x1D1CD3, size: 0x8, addend: 0x0, symName: __ZNKSt3__16vectorIPN4llvm5ValueENS_9allocatorIS3_EEE20__throw_length_errorB8ne190102Ev, symObjAddr: 0x10C80, symBinAddr: 0x1000147D4, symSize: 0x14 }
  - { offset: 0x1D1CFD, size: 0x8, addend: 0x0, symName: __ZNKSt3__16vectorIPN4llvm4TypeENS_9allocatorIS3_EEE20__throw_length_errorB8ne190102Ev, symObjAddr: 0x10C94, symBinAddr: 0x1000147E8, symSize: 0x14 }
  - { offset: 0x1D255A, size: 0x8, addend: 0x0, symName: __ZN11FunctionAST7codegenEv, symObjAddr: 0x2D28, symBinAddr: 0x10000687C, symSize: 0x4E8 }
  - { offset: 0x1D3A2D, size: 0x8, addend: 0x0, symName: __ZNSt3__16__treeINS_12__value_typeINS_12basic_stringIcNS_11char_traitsIcEENS_9allocatorIcEEEENS_10unique_ptrI12PrototypeASTNS_14default_deleteIS9_EEEEEENS_19__map_value_compareIS7_SD_NS_4lessIS7_EELb1EEENS5_ISD_EEE25__emplace_unique_key_argsIS7_JRKNS_21piecewise_construct_tENS_5tupleIJRKS7_EEENSO_IJEEEEEENS_4pairINS_15__tree_iteratorISD_PNS_11__tree_nodeISD_PvEElEEbEERKT_DpOT0_, symObjAddr: 0x10CA8, symBinAddr: 0x1000147FC, symSize: 0x1B4 }
  - { offset: 0x1D41FA, size: 0x8, addend: 0x0, symName: __ZNSt3__110unique_ptrI12PrototypeASTNS_14default_deleteIS1_EEE5resetB8ne190102EPS1_, symObjAddr: 0xF52C, symBinAddr: 0x100013080, symSize: 0xCC }
  - { offset: 0x1D46EC, size: 0x8, addend: 0x0, symName: __ZNSt3__16__treeINS_12__value_typeINS_12basic_stringIcNS_11char_traitsIcEENS_9allocatorIcEEEEPN4llvm10AllocaInstEEENS_19__map_value_compareIS7_SB_NS_4lessIS7_EELb1EEENS5_ISB_EEE25__emplace_unique_key_argsIS7_JRKNS_21piecewise_construct_tENS_5tupleIJOS7_EEENSM_IJEEEEEENS_4pairINS_15__tree_iteratorISB_PNS_11__tree_nodeISB_PvEElEEbEERKT_DpOT0_, symObjAddr: 0x10EC4, symBinAddr: 0x100014A18, symSize: 0x178 }
  - { offset: 0x1D4D50, size: 0x8, addend: 0x0, symName: __ZN4llvm13IRBuilderBase9CreateRetEPNS_5ValueE, symObjAddr: 0x3210, symBinAddr: 0x100006D64, symSize: 0xC4 }
  - { offset: 0x1D4F2F, size: 0x8, addend: 0x0, symName: __ZNKSt3__112basic_stringIcNS_11char_traitsIcEENS_9allocatorIcEEE20__throw_length_errorB8ne190102Ev, symObjAddr: 0xFDD4, symBinAddr: 0x100013928, symSize: 0x14 }
  - { offset: 0x1D4F59, size: 0x8, addend: 0x0, symName: __ZN4llvm13TargetOptionsC2Ev, symObjAddr: 0xFDE8, symBinAddr: 0x10001393C, symSize: 0xD8 }
  - { offset: 0x1D4FCA, size: 0x8, addend: 0x0, symName: _putchard, symObjAddr: 0x32D4, symBinAddr: 0x100006E28, symSize: 0x28 }
  - { offset: 0x1D501D, size: 0x8, addend: 0x0, symName: _printd, symObjAddr: 0x32FC, symBinAddr: 0x100006E50, symSize: 0x38 }
  - { offset: 0x1D6765, size: 0x8, addend: 0x0, symName: _main, symObjAddr: 0x3334, symBinAddr: 0x100006E88, symSize: 0x149C }
  - { offset: 0x1DC8F1, size: 0x8, addend: 0x0, symName: __ZL12getNextTokenv, symObjAddr: 0x47D0, symBinAddr: 0x100008324, symSize: 0x404 }
  - { offset: 0x1DD49C, size: 0x8, addend: 0x0, symName: __ZN4llvm3orc15KaleidoscopeJIT6CreateEv, symObjAddr: 0x4D38, symBinAddr: 0x10000888C, symSize: 0x3D8 }
  - { offset: 0x1DE873, size: 0x8, addend: 0x0, symName: __ZNK4llvm11ExitOnError10checkErrorENS_5ErrorE, symObjAddr: 0xF5F8, symBinAddr: 0x10001314C, symSize: 0xBC }
  - { offset: 0x1DEBC5, size: 0x8, addend: 0x0, symName: __ZL26InitializeModuleAndManagerv, symObjAddr: 0x5170, symBinAddr: 0x100008CC4, symSize: 0x830 }
  - { offset: 0x1E1FE0, size: 0x8, addend: 0x0, symName: __ZL14ParsePrototypev, symObjAddr: 0xDA58, symBinAddr: 0x1000115AC, symSize: 0x450 }
  - { offset: 0x1E3016, size: 0x8, addend: 0x0, symName: __ZL15ParseExpressionv, symObjAddr: 0xDEA8, symBinAddr: 0x1000119FC, symSize: 0xFC }
  - { offset: 0x1E355E, size: 0x8, addend: 0x0, symName: __ZN4llvm3orc17ThreadSafeContextC2ENSt3__110unique_ptrINS_11LLVMContextENS2_14default_deleteIS4_EEEE, symObjAddr: 0xF6E8, symBinAddr: 0x10001323C, symSize: 0xE0 }
  - { offset: 0x1E3A66, size: 0x8, addend: 0x0, symName: __ZN4llvm3orc15KaleidoscopeJIT9addModuleENS0_16ThreadSafeModuleENS_18IntrusiveRefCntPtrINS0_15ResourceTrackerEEE, symObjAddr: 0xD80C, symBinAddr: 0x100011360, symSize: 0x174 }
  - { offset: 0x1E406D, size: 0x8, addend: 0x0, symName: __ZN4llvm3orc16ThreadSafeModuleD2Ev, symObjAddr: 0xF8AC, symBinAddr: 0x100013400, symSize: 0x14C }
  - { offset: 0x1E4610, size: 0x8, addend: 0x0, symName: __ZN4llvm3orc15KaleidoscopeJIT6lookupENS_9StringRefE, symObjAddr: 0xF9F8, symBinAddr: 0x10001354C, symSize: 0x1E4 }
  - { offset: 0x1E4E98, size: 0x8, addend: 0x0, symName: __ZN4llvm13TargetOptionsC2Ev, symObjAddr: 0xFDE8, symBinAddr: 0x10001393C, symSize: 0xD8 }
  - { offset: 0x1E51A2, size: 0x8, addend: 0x0, symName: __ZN4llvm10DataLayoutC2ERKS0_, symObjAddr: 0x791C, symBinAddr: 0x10000B470, symSize: 0x278 }
  - { offset: 0x1E5EC7, size: 0x8, addend: 0x0, symName: __ZN4llvm15MCTargetOptionsD2Ev, symObjAddr: 0xFF1C, symBinAddr: 0x100013A70, symSize: 0x10C }
  - { offset: 0x1E674C, size: 0x8, addend: 0x0, symName: __ZN4llvm13TargetOptionsD1Ev, symObjAddr: 0x5A24, symBinAddr: 0x100009578, symSize: 0xB0 }
  - { offset: 0x1E6AF5, size: 0x8, addend: 0x0, symName: __ZN4llvm8ExpectedINSt3__110unique_ptrINS_3orc15KaleidoscopeJITENS1_14default_deleteIS4_EEEEED1Ev, symObjAddr: 0x5110, symBinAddr: 0x100008C64, symSize: 0x60 }
  - { offset: 0x1E6CA9, size: 0x8, addend: 0x0, symName: __ZN4llvm18IntrusiveRefCntPtrINS_3orc15ResourceTrackerEED1Ev, symObjAddr: 0xD980, symBinAddr: 0x1000114D4, symSize: 0x7C }
  - { offset: 0x1E6DA5, size: 0x8, addend: 0x0, symName: __ZNSt3__16vectorINS_12basic_stringIcNS_11char_traitsIcEENS_9allocatorIcEEEENS4_IS6_EEED1B8ne190102Ev, symObjAddr: 0x90F8, symBinAddr: 0x10000CC4C, symSize: 0x80 }
  - { offset: 0x1E70D0, size: 0x8, addend: 0x0, symName: __ZNSt3__110unique_ptrI11FunctionASTNS_14default_deleteIS1_EEED1B8ne190102Ev, symObjAddr: 0xD9FC, symBinAddr: 0x100011550, symSize: 0x5C }
  - { offset: 0x1E81F8, size: 0x8, addend: 0x0, symName: __ZN4llvm3orc23JITTargetMachineBuilder29getDefaultDataLayoutForTargetEv, symObjAddr: 0x74C0, symBinAddr: 0x10000B014, symSize: 0x144 }
  - { offset: 0x1E857B, size: 0x8, addend: 0x0, symName: __ZN4llvm3orc23JITTargetMachineBuilderD2Ev, symObjAddr: 0x8FA8, symBinAddr: 0x10000CAFC, symSize: 0x150 }
  - { offset: 0x1E8F8F, size: 0x8, addend: 0x0, symName: __ZN4llvm8ExpectedINS_10DataLayoutEED1Ev, symObjAddr: 0x7888, symBinAddr: 0x10000B3DC, symSize: 0x54 }
  - { offset: 0x1E906C, size: 0x8, addend: 0x0, symName: __ZNSt3__110unique_ptrIN4llvm3orc16ExecutionSessionENS_14default_deleteIS3_EEED1B8ne190102Ev, symObjAddr: 0x78DC, symBinAddr: 0x10000B430, symSize: 0x40 }
  - { offset: 0x1E910D, size: 0x8, addend: 0x0, symName: __ZNSt3__110shared_ptrIN4llvm3orc16SymbolStringPoolEED1B8ne190102Ev, symObjAddr: 0x7464, symBinAddr: 0x10000AFB8, symSize: 0x5C }
  - { offset: 0x1EAFC3, size: 0x8, addend: 0x0, symName: __ZN4llvm11PassManagerINS_8FunctionENS_15AnalysisManagerIS1_JEEEJEE7addPassINS_15InstCombinePassEEENSt3__19enable_ifIXntsr3stdE9is_same_vIT_S4_EEvE4typeEOS9_, symObjAddr: 0x9178, symBinAddr: 0x10000CCCC, symSize: 0x104 }
  - { offset: 0x1EB28C, size: 0x8, addend: 0x0, symName: __ZN4llvm11PassManagerINS_8FunctionENS_15AnalysisManagerIS1_JEEEJEE7addPassINS_15ReassociatePassEEENSt3__19enable_ifIXntsr3stdE9is_same_vIT_S4_EEvE4typeEOS9_, symObjAddr: 0x92F4, symBinAddr: 0x10000CE48, symSize: 0xD8 }
  - { offset: 0x1EB5B7, size: 0x8, addend: 0x0, symName: __ZN4llvm15ReassociatePassD2Ev, symObjAddr: 0xB078, symBinAddr: 0x10000EBCC, symSize: 0x2B4 }
  - { offset: 0x1EBA95, size: 0x8, addend: 0x0, symName: __ZN4llvm11PassManagerINS_8FunctionENS_15AnalysisManagerIS1_JEEEJEE7addPassINS_7GVNPassEEENSt3__19enable_ifIXntsr3stdE9is_same_vIT_S4_EEvE4typeEOS9_, symObjAddr: 0x93CC, symBinAddr: 0x10000CF20, symSize: 0x104 }
  - { offset: 0x1EBDA6, size: 0x8, addend: 0x0, symName: __ZN4llvm7GVNPassD2Ev, symObjAddr: 0xCB44, symBinAddr: 0x100010698, symSize: 0x114 }
  - { offset: 0x1EC460, size: 0x8, addend: 0x0, symName: __ZN4llvm11PassBuilderD2Ev, symObjAddr: 0xCDA8, symBinAddr: 0x1000108FC, symSize: 0xA64 }
  - { offset: 0x1EF001, size: 0x8, addend: 0x0, symName: __ZNKSt3__16vectorINS_10unique_ptrIN4llvm6detail11PassConceptINS2_8FunctionENS2_15AnalysisManagerIS5_JEEEJEEENS_14default_deleteIS8_EEEENS_9allocatorISB_EEE20__throw_length_errorB8ne190102Ev, symObjAddr: 0xA534, symBinAddr: 0x10000E088, symSize: 0x14 }
  - { offset: 0x1EF02B, size: 0x8, addend: 0x0, symName: __ZN4llvm19InstructionWorklistC2EOS0_, symObjAddr: 0xA548, symBinAddr: 0x10000E09C, symSize: 0x154 }
  - { offset: 0x1EF036, size: 0x8, addend: 0x0, symName: __ZN4llvm9SetVectorIPNS_10BasicBlockENS_11SmallVectorIS2_Lj0EEENS_8DenseSetIS2_NS_12DenseMapInfoIS2_vEEEELj0EED1Ev, symObjAddr: 0xB738, symBinAddr: 0x10000F28C, symSize: 0x4C }
  - { offset: 0x1EF1F7, size: 0x8, addend: 0x0, symName: __ZN4llvm15InstCombinePassD1Ev, symObjAddr: 0x927C, symBinAddr: 0x10000CDD0, symSize: 0x78 }
  - { offset: 0x1EF58E, size: 0x8, addend: 0x0, symName: __ZN4llvm11raw_ostreamlsEPKc, symObjAddr: 0x59A0, symBinAddr: 0x1000094F4, symSize: 0x84 }
  - { offset: 0x1EF68E, size: 0x8, addend: 0x0, symName: __ZN13NumberExprASTD1Ev, symObjAddr: 0x5AD4, symBinAddr: 0x100009628, symSize: 0x4 }
  - { offset: 0x1EF6BA, size: 0x8, addend: 0x0, symName: __ZN13NumberExprASTD0Ev, symObjAddr: 0x5AD8, symBinAddr: 0x10000962C, symSize: 0x8 }
  - { offset: 0x1EF6F8, size: 0x8, addend: 0x0, symName: __ZN15VariableExprASTD1Ev, symObjAddr: 0x5AE0, symBinAddr: 0x100009634, symSize: 0x4C }
  - { offset: 0x1EF8A7, size: 0x8, addend: 0x0, symName: __ZN15VariableExprASTD0Ev, symObjAddr: 0x5B2C, symBinAddr: 0x100009680, symSize: 0x54 }
  - { offset: 0x1EFC15, size: 0x8, addend: 0x0, symName: __ZN10VarExprASTD1Ev, symObjAddr: 0x5B80, symBinAddr: 0x1000096D4, symSize: 0xBC }
  - { offset: 0x1F013F, size: 0x8, addend: 0x0, symName: __ZN10VarExprASTD0Ev, symObjAddr: 0x5C3C, symBinAddr: 0x100009790, symSize: 0xC0 }
  - { offset: 0x1F0693, size: 0x8, addend: 0x0, symName: __ZN13BinaryExprASTD1Ev, symObjAddr: 0x5CFC, symBinAddr: 0x100009850, symSize: 0x5C }
  - { offset: 0x1F0844, size: 0x8, addend: 0x0, symName: __ZN13BinaryExprASTD0Ev, symObjAddr: 0x5D58, symBinAddr: 0x1000098AC, symSize: 0x60 }
  - { offset: 0x1F0A1F, size: 0x8, addend: 0x0, symName: __ZN12UnaryExprASTD1Ev, symObjAddr: 0x5DB8, symBinAddr: 0x10000990C, symSize: 0x48 }
  - { offset: 0x1F0A45, size: 0x8, addend: 0x0, symName: __ZN12UnaryExprASTD1Ev, symObjAddr: 0x5DB8, symBinAddr: 0x10000990C, symSize: 0x48 }
  - { offset: 0x1F0B2B, size: 0x8, addend: 0x0, symName: __ZN12UnaryExprASTD0Ev, symObjAddr: 0x5E00, symBinAddr: 0x100009954, symSize: 0x4C }
  - { offset: 0x1F0B5C, size: 0x8, addend: 0x0, symName: __ZN12UnaryExprASTD0Ev, symObjAddr: 0x5E00, symBinAddr: 0x100009954, symSize: 0x4C }
  - { offset: 0x1F0B7C, size: 0x8, addend: 0x0, symName: __ZN12UnaryExprASTD0Ev, symObjAddr: 0x5E00, symBinAddr: 0x100009954, symSize: 0x4C }
  - { offset: 0x1F0DC6, size: 0x8, addend: 0x0, symName: __ZN11CallExprASTD1Ev, symObjAddr: 0x5E4C, symBinAddr: 0x1000099A0, symSize: 0xB4 }
  - { offset: 0x1F1218, size: 0x8, addend: 0x0, symName: __ZN11CallExprASTD0Ev, symObjAddr: 0x5F00, symBinAddr: 0x100009A54, symSize: 0xBC }
  - { offset: 0x1F168E, size: 0x8, addend: 0x0, symName: __ZN9IfExprASTD1Ev, symObjAddr: 0x5FBC, symBinAddr: 0x100009B10, symSize: 0x74 }
  - { offset: 0x1F18E8, size: 0x8, addend: 0x0, symName: __ZN9IfExprASTD0Ev, symObjAddr: 0x6030, symBinAddr: 0x100009B84, symSize: 0x78 }
  - { offset: 0x1F1B6C, size: 0x8, addend: 0x0, symName: __ZN10ForExprASTD1Ev, symObjAddr: 0x60A8, symBinAddr: 0x100009BFC, symSize: 0xB4 }
  - { offset: 0x1F1FB5, size: 0x8, addend: 0x0, symName: __ZN10ForExprASTD0Ev, symObjAddr: 0x615C, symBinAddr: 0x100009CB0, symSize: 0xBC }
  - { offset: 0x1F2405, size: 0x8, addend: 0x0, symName: __ZNSt3__110__function6__funcIZN4llvm11ExitOnErrorC1ENS_12basic_stringIcNS_11char_traitsIcEENS_9allocatorIcEEEEiEUlRKNS2_5ErrorEE_NS7_ISD_EEFiSC_EED1Ev, symObjAddr: 0x6228, symBinAddr: 0x100009D7C, symSize: 0x4 }
  - { offset: 0x1F2430, size: 0x8, addend: 0x0, symName: __ZNSt3__110__function6__funcIZN4llvm11ExitOnErrorC1ENS_12basic_stringIcNS_11char_traitsIcEENS_9allocatorIcEEEEiEUlRKNS2_5ErrorEE_NS7_ISD_EEFiSC_EED0Ev, symObjAddr: 0x622C, symBinAddr: 0x100009D80, symSize: 0x8 }
  - { offset: 0x1F266F, size: 0x8, addend: 0x0, symName: __ZNKSt3__110__function6__funcIZN4llvm11ExitOnErrorC1ENS_12basic_stringIcNS_11char_traitsIcEENS_9allocatorIcEEEEiEUlRKNS2_5ErrorEE_NS7_ISD_EEFiSC_EE7__cloneEv, symObjAddr: 0x6234, symBinAddr: 0x100009D88, symSize: 0x3C }
  - { offset: 0x1F29BA, size: 0x8, addend: 0x0, symName: __ZNKSt3__110__function6__funcIZN4llvm11ExitOnErrorC1ENS_12basic_stringIcNS_11char_traitsIcEENS_9allocatorIcEEEEiEUlRKNS2_5ErrorEE_NS7_ISD_EEFiSC_EE7__cloneEPNS0_6__baseISF_EE, symObjAddr: 0x6270, symBinAddr: 0x100009DC4, symSize: 0x1C }
  - { offset: 0x1F29F1, size: 0x8, addend: 0x0, symName: __ZNKSt3__110__function6__funcIZN4llvm11ExitOnErrorC1ENS_12basic_stringIcNS_11char_traitsIcEENS_9allocatorIcEEEEiEUlRKNS2_5ErrorEE_NS7_ISD_EEFiSC_EE7__cloneEPNS0_6__baseISF_EE, symObjAddr: 0x6270, symBinAddr: 0x100009DC4, symSize: 0x1C }
  - { offset: 0x1F2A23, size: 0x8, addend: 0x0, symName: __ZNKSt3__110__function6__funcIZN4llvm11ExitOnErrorC1ENS_12basic_stringIcNS_11char_traitsIcEENS_9allocatorIcEEEEiEUlRKNS2_5ErrorEE_NS7_ISD_EEFiSC_EE7__cloneEPNS0_6__baseISF_EE, symObjAddr: 0x6270, symBinAddr: 0x100009DC4, symSize: 0x1C }
  - { offset: 0x1F2B4F, size: 0x8, addend: 0x0, symName: __ZNSt3__110__function6__funcIZN4llvm11ExitOnErrorC1ENS_12basic_stringIcNS_11char_traitsIcEENS_9allocatorIcEEEEiEUlRKNS2_5ErrorEE_NS7_ISD_EEFiSC_EE7destroyEv, symObjAddr: 0x628C, symBinAddr: 0x100009DE0, symSize: 0x4 }
  - { offset: 0x1F2BA2, size: 0x8, addend: 0x0, symName: __ZNSt3__110__function6__funcIZN4llvm11ExitOnErrorC1ENS_12basic_stringIcNS_11char_traitsIcEENS_9allocatorIcEEEEiEUlRKNS2_5ErrorEE_NS7_ISD_EEFiSC_EE18destroy_deallocateEv, symObjAddr: 0x6290, symBinAddr: 0x100009DE4, symSize: 0x8 }
  - { offset: 0x1F2BD7, size: 0x8, addend: 0x0, symName: __ZNSt3__110__function6__funcIZN4llvm11ExitOnErrorC1ENS_12basic_stringIcNS_11char_traitsIcEENS_9allocatorIcEEEEiEUlRKNS2_5ErrorEE_NS7_ISD_EEFiSC_EE18destroy_deallocateEv, symObjAddr: 0x6290, symBinAddr: 0x100009DE4, symSize: 0x8 }
  - { offset: 0x1F2BFC, size: 0x8, addend: 0x0, symName: __ZNSt3__110__function6__funcIZN4llvm11ExitOnErrorC1ENS_12basic_stringIcNS_11char_traitsIcEENS_9allocatorIcEEEEiEUlRKNS2_5ErrorEE_NS7_ISD_EEFiSC_EE18destroy_deallocateEv, symObjAddr: 0x6290, symBinAddr: 0x100009DE4, symSize: 0x8 }
  - { offset: 0x1F2C27, size: 0x8, addend: 0x0, symName: __ZNSt3__110__function6__funcIZN4llvm11ExitOnErrorC1ENS_12basic_stringIcNS_11char_traitsIcEENS_9allocatorIcEEEEiEUlRKNS2_5ErrorEE_NS7_ISD_EEFiSC_EE18destroy_deallocateEv, symObjAddr: 0x6290, symBinAddr: 0x100009DE4, symSize: 0x8 }
  - { offset: 0x1F2C4D, size: 0x8, addend: 0x0, symName: __ZNSt3__110__function6__funcIZN4llvm11ExitOnErrorC1ENS_12basic_stringIcNS_11char_traitsIcEENS_9allocatorIcEEEEiEUlRKNS2_5ErrorEE_NS7_ISD_EEFiSC_EE18destroy_deallocateEv, symObjAddr: 0x6290, symBinAddr: 0x100009DE4, symSize: 0x8 }
  - { offset: 0x1F2CFD, size: 0x8, addend: 0x0, symName: __ZNSt3__110__function6__funcIZN4llvm11ExitOnErrorC1ENS_12basic_stringIcNS_11char_traitsIcEENS_9allocatorIcEEEEiEUlRKNS2_5ErrorEE_NS7_ISD_EEFiSC_EEclESC_, symObjAddr: 0x6298, symBinAddr: 0x100009DEC, symSize: 0x8 }
  - { offset: 0x1F2D36, size: 0x8, addend: 0x0, symName: __ZNSt3__110__function6__funcIZN4llvm11ExitOnErrorC1ENS_12basic_stringIcNS_11char_traitsIcEENS_9allocatorIcEEEEiEUlRKNS2_5ErrorEE_NS7_ISD_EEFiSC_EEclESC_, symObjAddr: 0x6298, symBinAddr: 0x100009DEC, symSize: 0x8 }
  - { offset: 0x1F2D56, size: 0x8, addend: 0x0, symName: __ZNSt3__110__function6__funcIZN4llvm11ExitOnErrorC1ENS_12basic_stringIcNS_11char_traitsIcEENS_9allocatorIcEEEEiEUlRKNS2_5ErrorEE_NS7_ISD_EEFiSC_EEclESC_, symObjAddr: 0x6298, symBinAddr: 0x100009DEC, symSize: 0x8 }
  - { offset: 0x1F2D75, size: 0x8, addend: 0x0, symName: __ZNSt3__110__function6__funcIZN4llvm11ExitOnErrorC1ENS_12basic_stringIcNS_11char_traitsIcEENS_9allocatorIcEEEEiEUlRKNS2_5ErrorEE_NS7_ISD_EEFiSC_EEclESC_, symObjAddr: 0x6298, symBinAddr: 0x100009DEC, symSize: 0x8 }
  - { offset: 0x1F2D95, size: 0x8, addend: 0x0, symName: __ZNSt3__110__function6__funcIZN4llvm11ExitOnErrorC1ENS_12basic_stringIcNS_11char_traitsIcEENS_9allocatorIcEEEEiEUlRKNS2_5ErrorEE_NS7_ISD_EEFiSC_EEclESC_, symObjAddr: 0x6298, symBinAddr: 0x100009DEC, symSize: 0x8 }
  - { offset: 0x1F2E13, size: 0x8, addend: 0x0, symName: __ZNKSt3__110__function6__funcIZN4llvm11ExitOnErrorC1ENS_12basic_stringIcNS_11char_traitsIcEENS_9allocatorIcEEEEiEUlRKNS2_5ErrorEE_NS7_ISD_EEFiSC_EE6targetERKSt9type_info, symObjAddr: 0x62A0, symBinAddr: 0x100009DF4, symSize: 0x74 }
  - { offset: 0x1F2EE2, size: 0x8, addend: 0x0, symName: __ZNKSt3__110__function6__funcIZN4llvm11ExitOnErrorC1ENS_12basic_stringIcNS_11char_traitsIcEENS_9allocatorIcEEEEiEUlRKNS2_5ErrorEE_NS7_ISD_EEFiSC_EE11target_typeEv, symObjAddr: 0x6314, symBinAddr: 0x100009E68, symSize: 0xC }
  - { offset: 0x1F346B, size: 0x8, addend: 0x0, symName: __ZN4llvm23SmallVectorTemplateBaseINSt3__14pairIjPNS_6MDNodeEEELb1EE18growAndEmplaceBackIJRjRS4_EEERS5_DpOT_, symObjAddr: 0x68CC, symBinAddr: 0x10000A420, symSize: 0xB4 }
  - { offset: 0x1F36E1, size: 0x8, addend: 0x0, symName: __ZN4llvm13IRBuilderBase18CreateAlignedStoreEPNS_5ValueES2_NS_10MaybeAlignEb, symObjAddr: 0x6980, symBinAddr: 0x10000A4D4, symSize: 0xF0 }
  - { offset: 0x1F3704, size: 0x8, addend: 0x0, symName: __ZN4llvm8DebugLocD1Ev, symObjAddr: 0x6760, symBinAddr: 0x10000A2B4, symSize: 0x30 }
  - { offset: 0x1F3C00, size: 0x8, addend: 0x0, symName: __ZN4llvm8CallInst6CreateEPNS_12FunctionTypeEPNS_5ValueENS_8ArrayRefIS4_EENS5_INS_17OperandBundleDefTIS4_EEEERKNS_5TwineENS_14InsertPositionE, symObjAddr: 0x6B90, symBinAddr: 0x10000A6E4, symSize: 0x398 }
  - { offset: 0x1F3FE0, size: 0x8, addend: 0x0, symName: __ZN4llvm13isa_impl_wrapINS_14FPMathOperatorEPKNS_8CallInstES4_E4doitERKS4_, symObjAddr: 0x6F28, symBinAddr: 0x10000AA7C, symSize: 0x134 }
  - { offset: 0x1F4332, size: 0x8, addend: 0x0, symName: __ZN4llvm7PHINode6CreateEPNS_4TypeEjRKNS_5TwineENS_14InsertPositionE, symObjAddr: 0x705C, symBinAddr: 0x10000ABB0, symSize: 0xE4 }
  - { offset: 0x1F499F, size: 0x8, addend: 0x0, symName: __ZNKSt3__112basic_stringIcNS_11char_traitsIcEENS_9allocatorIcEEE20__throw_out_of_rangeB8ne190102Ev, symObjAddr: 0x73DC, symBinAddr: 0x10000AF30, symSize: 0x14 }
  - { offset: 0x1F49C9, size: 0x8, addend: 0x0, symName: __ZNSt3__120__throw_out_of_rangeB8ne190102EPKc, symObjAddr: 0x73F0, symBinAddr: 0x10000AF44, symSize: 0x50 }
  - { offset: 0x1F49D4, size: 0x8, addend: 0x0, symName: __ZNSt12out_of_rangeC1B8ne190102EPKc, symObjAddr: 0x7440, symBinAddr: 0x10000AF94, symSize: 0x24 }
  - { offset: 0x1F585A, size: 0x8, addend: 0x0, symName: __ZN4llvm15SmallVectorImplIhEaSERKS1_, symObjAddr: 0x7B94, symBinAddr: 0x10000B6E8, symSize: 0x12C }
  - { offset: 0x1F5E11, size: 0x8, addend: 0x0, symName: __ZN4llvm15SmallVectorImplINS_15LayoutAlignElemEEaSERKS2_, symObjAddr: 0x7CC0, symBinAddr: 0x10000B814, symSize: 0x140 }
  - { offset: 0x1F5E24, size: 0x8, addend: 0x0, symName: __ZN4llvm15SmallVectorImplINS_15LayoutAlignElemEEaSERKS2_, symObjAddr: 0x7CC0, symBinAddr: 0x10000B814, symSize: 0x140 }
  - { offset: 0x1F638D, size: 0x8, addend: 0x0, symName: __ZN4llvm15SmallVectorImplINS_16PointerAlignElemEEaSERKS2_, symObjAddr: 0x7E00, symBinAddr: 0x10000B954, symSize: 0x138 }
  - { offset: 0x1F63A0, size: 0x8, addend: 0x0, symName: __ZN4llvm15SmallVectorImplINS_16PointerAlignElemEEaSERKS2_, symObjAddr: 0x7E00, symBinAddr: 0x10000B954, symSize: 0x138 }
  - { offset: 0x1F690B, size: 0x8, addend: 0x0, symName: __ZN4llvm15SmallVectorImplIjEaSERKS1_, symObjAddr: 0x7F38, symBinAddr: 0x10000BA8C, symSize: 0x138 }
  - { offset: 0x1F691E, size: 0x8, addend: 0x0, symName: __ZN4llvm15SmallVectorImplIjEaSERKS1_, symObjAddr: 0x7F38, symBinAddr: 0x10000BA8C, symSize: 0x138 }
  - { offset: 0x1F6E89, size: 0x8, addend: 0x0, symName: __ZN4llvm3orc15KaleidoscopeJITC2ENSt3__110unique_ptrINS0_16ExecutionSessionENS2_14default_deleteIS4_EEEENS0_23JITTargetMachineBuilderENS_10DataLayoutE, symObjAddr: 0x8070, symBinAddr: 0x10000BBC4, symSize: 0x4A0 }
  - { offset: 0x1F7FB7, size: 0x8, addend: 0x0, symName: __ZN4llvm3orc29DynamicLibrarySearchGenerator20GetForCurrentProcessEcNSt3__18functionIFbRKNS0_15SymbolStringPtrEEEENS_15unique_functionIFNS_5ErrorERNS0_8JITDylibENS_8DenseMapIS4_NS0_17ExecutorSymbolDefENS_12DenseMapInfoIS4_vEENS_6detail12DenseMapPairIS4_SE_EEEEEEE, symObjAddr: 0x8874, symBinAddr: 0x10000C3C8, symSize: 0x1CC }
  - { offset: 0x1F84D4, size: 0x8, addend: 0x0, symName: __ZZN4llvm3orc8JITDylib12addGeneratorINS0_29DynamicLibrarySearchGeneratorEEERT_NSt3__110unique_ptrIS4_NS6_14default_deleteIS4_EEEEENKUlvE_clEv, symObjAddr: 0x8B74, symBinAddr: 0x10000C6C8, symSize: 0x190 }
  - { offset: 0x1F8AB8, size: 0x8, addend: 0x0, symName: __ZN4llvm15unique_functionIFNS_5ErrorERNS_3orc8JITDylibENS_8DenseMapINS2_15SymbolStringPtrENS2_17ExecutorSymbolDefENS_12DenseMapInfoIS6_vEENS_6detail12DenseMapPairIS6_S7_EEEEEED1Ev, symObjAddr: 0x8A40, symBinAddr: 0x10000C594, symSize: 0x6C }
  - { offset: 0x1F8C8D, size: 0x8, addend: 0x0, symName: __ZN4llvm3orc14IRCompileLayerD1Ev, symObjAddr: 0x8AAC, symBinAddr: 0x10000C600, symSize: 0x7C }
  - { offset: 0x1F8E0B, size: 0x8, addend: 0x0, symName: __ZN4llvm15unique_functionIFNSt3__110unique_ptrINS_11RuntimeDyld13MemoryManagerENS1_14default_deleteIS4_EEEEvEED1Ev, symObjAddr: 0x8510, symBinAddr: 0x10000C064, symSize: 0x6C }
  - { offset: 0x1F92B9, size: 0x8, addend: 0x0, symName: __ZN4llvm18raw_string_ostreamC1ERNSt3__112basic_stringIcNS1_11char_traitsIcEENS1_9allocatorIcEEEE, symObjAddr: 0x8E98, symBinAddr: 0x10000C9EC, symSize: 0x70 }
  - { offset: 0x1F967D, size: 0x8, addend: 0x0, symName: __ZN4llvm6detail18UniqueFunctionBaseINSt3__110unique_ptrINS_11RuntimeDyld13MemoryManagerENS2_14default_deleteIS5_EEEEJEE8CallImplIZNS_3orc15KaleidoscopeJITC1ENS3_INSB_16ExecutionSessionENS6_ISD_EEEENSB_23JITTargetMachineBuilderENS_10DataLayoutEEUlvE_EES8_Pv, symObjAddr: 0x8B28, symBinAddr: 0x10000C67C, symSize: 0x4C }
  - { offset: 0x1F9D03, size: 0x8, addend: 0x0, symName: __ZNKSt3__16vectorINS_10shared_ptrIN4llvm3orc19DefinitionGeneratorEEENS_9allocatorIS5_EEE20__throw_length_errorB8ne190102Ev, symObjAddr: 0x8D60, symBinAddr: 0x10000C8B4, symSize: 0x14 }
  - { offset: 0x1F9D2D, size: 0x8, addend: 0x0, symName: __ZNSt3__120__throw_length_errorB8ne190102EPKc, symObjAddr: 0x8D74, symBinAddr: 0x10000C8C8, symSize: 0x50 }
  - { offset: 0x1F9D38, size: 0x8, addend: 0x0, symName: __ZNSt3__110shared_ptrIN4llvm3orc19DefinitionGeneratorEED1B8ne190102Ev, symObjAddr: 0x8D04, symBinAddr: 0x10000C858, symSize: 0x5C }
  - { offset: 0x1F9DF9, size: 0x8, addend: 0x0, symName: __ZNSt12length_errorC1B8ne190102EPKc, symObjAddr: 0x8DC4, symBinAddr: 0x10000C918, symSize: 0x24 }
  - { offset: 0x1F9EA5, size: 0x8, addend: 0x0, symName: __ZNSt3__120__shared_ptr_pointerIPN4llvm3orc29DynamicLibrarySearchGeneratorENS_14default_deleteIS3_EENS_9allocatorIS3_EEED1Ev, symObjAddr: 0x8DE8, symBinAddr: 0x10000C93C, symSize: 0x4 }
  - { offset: 0x1F9EC9, size: 0x8, addend: 0x0, symName: __ZNSt3__120__shared_ptr_pointerIPN4llvm3orc29DynamicLibrarySearchGeneratorENS_14default_deleteIS3_EENS_9allocatorIS3_EEED1Ev, symObjAddr: 0x8DE8, symBinAddr: 0x10000C93C, symSize: 0x4 }
  - { offset: 0x1F9F00, size: 0x8, addend: 0x0, symName: __ZNSt3__120__shared_ptr_pointerIPN4llvm3orc29DynamicLibrarySearchGeneratorENS_14default_deleteIS3_EENS_9allocatorIS3_EEED0Ev, symObjAddr: 0x8DEC, symBinAddr: 0x10000C940, symSize: 0x18 }
  - { offset: 0x1F9F67, size: 0x8, addend: 0x0, symName: __ZNSt3__120__shared_ptr_pointerIPN4llvm3orc29DynamicLibrarySearchGeneratorENS_14default_deleteIS3_EENS_9allocatorIS3_EEE16__on_zero_sharedEv, symObjAddr: 0x8E04, symBinAddr: 0x10000C958, symSize: 0x18 }
  - { offset: 0x1F9FB8, size: 0x8, addend: 0x0, symName: __ZNKSt3__120__shared_ptr_pointerIPN4llvm3orc29DynamicLibrarySearchGeneratorENS_14default_deleteIS3_EENS_9allocatorIS3_EEE13__get_deleterERKSt9type_info, symObjAddr: 0x8E1C, symBinAddr: 0x10000C970, symSize: 0x74 }
  - { offset: 0x1FA0CC, size: 0x8, addend: 0x0, symName: __ZNSt3__120__shared_ptr_pointerIPN4llvm3orc29DynamicLibrarySearchGeneratorENS_14default_deleteIS3_EENS_9allocatorIS3_EEE21__on_zero_shared_weakEv, symObjAddr: 0x8E90, symBinAddr: 0x10000C9E4, symSize: 0x8 }
  - { offset: 0x1FA100, size: 0x8, addend: 0x0, symName: __ZNSt3__120__shared_ptr_pointerIPN4llvm3orc29DynamicLibrarySearchGeneratorENS_14default_deleteIS3_EENS_9allocatorIS3_EEE21__on_zero_shared_weakEv, symObjAddr: 0x8E90, symBinAddr: 0x10000C9E4, symSize: 0x8 }
  - { offset: 0x1FA124, size: 0x8, addend: 0x0, symName: __ZNSt3__120__shared_ptr_pointerIPN4llvm3orc29DynamicLibrarySearchGeneratorENS_14default_deleteIS3_EENS_9allocatorIS3_EEE21__on_zero_shared_weakEv, symObjAddr: 0x8E90, symBinAddr: 0x10000C9E4, symSize: 0x8 }
  - { offset: 0x1FA14F, size: 0x8, addend: 0x0, symName: __ZNSt3__120__shared_ptr_pointerIPN4llvm3orc29DynamicLibrarySearchGeneratorENS_14default_deleteIS3_EENS_9allocatorIS3_EEE21__on_zero_shared_weakEv, symObjAddr: 0x8E90, symBinAddr: 0x10000C9E4, symSize: 0x8 }
  - { offset: 0x1FA175, size: 0x8, addend: 0x0, symName: __ZNSt3__120__shared_ptr_pointerIPN4llvm3orc29DynamicLibrarySearchGeneratorENS_14default_deleteIS3_EENS_9allocatorIS3_EEE21__on_zero_shared_weakEv, symObjAddr: 0x8E90, symBinAddr: 0x10000C9E4, symSize: 0x8 }
  - { offset: 0x1FA370, size: 0x8, addend: 0x0, symName: __ZN4llvm15InstCombinePassC1EOS0_, symObjAddr: 0xA4CC, symBinAddr: 0x10000E020, symSize: 0x28 }
  - { offset: 0x1FA42C, size: 0x8, addend: 0x0, symName: __ZN4llvm6detail9PassModelINS_8FunctionENS_15InstCombinePassENS_15AnalysisManagerIS2_JEEEJEEC1ES3_, symObjAddr: 0xA4F4, symBinAddr: 0x10000E048, symSize: 0x40 }
  - { offset: 0x1FA501, size: 0x8, addend: 0x0, symName: __ZNSt3__16vectorINS_10unique_ptrIN4llvm6detail11PassConceptINS2_8FunctionENS2_15AnalysisManagerIS5_JEEEJEEENS_14default_deleteIS8_EEEENS_9allocatorISB_EEE9push_backB8ne190102EOSB_, symObjAddr: 0xA3BC, symBinAddr: 0x10000DF10, symSize: 0x110 }
  - { offset: 0x1FAB11, size: 0x8, addend: 0x0, symName: __ZN4llvm15InstCombinePassC1EOS0_, symObjAddr: 0xA4CC, symBinAddr: 0x10000E020, symSize: 0x28 }
  - { offset: 0x1FAB3E, size: 0x8, addend: 0x0, symName: __ZN4llvm15ReassociatePassC2EOS0_, symObjAddr: 0xAB3C, symBinAddr: 0x10000E690, symSize: 0x164 }
  - { offset: 0x1FB44A, size: 0x8, addend: 0x0, symName: __ZN4llvm6detail9PassModelINS_8FunctionENS_15ReassociatePassENS_15AnalysisManagerIS2_JEEEJEEC1ES3_, symObjAddr: 0xAB08, symBinAddr: 0x10000E65C, symSize: 0x34 }
  - { offset: 0x1FB50B, size: 0x8, addend: 0x0, symName: __ZN4llvm7GVNPassC2EOS0_, symObjAddr: 0xB360, symBinAddr: 0x10000EEB4, symSize: 0x2E0 }
  - { offset: 0x1FC213, size: 0x8, addend: 0x0, symName: __ZN4llvm6detail9PassModelINS_8FunctionENS_7GVNPassENS_15AnalysisManagerIS2_JEEEJEEC1ES3_, symObjAddr: 0xB32C, symBinAddr: 0x10000EE80, symSize: 0x34 }
  - { offset: 0x1FC483, size: 0x8, addend: 0x0, symName: __ZN4llvm8DenseMapIPNS_4LoopENSt3__14listINS3_4pairIPNS_11AnalysisKeyENS3_10unique_ptrINS_6detail21AnalysisResultConceptIS1_NS_15AnalysisManagerIS1_JRNS_27LoopStandardAnalysisResultsEEE11InvalidatorEEENS3_14default_deleteISG_EEEEEENS3_9allocatorISK_EEEENS_12DenseMapInfoIS2_vEENS9_12DenseMapPairIS2_SN_EEED2Ev, symObjAddr: 0x95A4, symBinAddr: 0x10000D0F8, symSize: 0xEC }
  - { offset: 0x1FCD6A, size: 0x8, addend: 0x0, symName: __ZN4llvm8DenseMapIPNS_8FunctionENSt3__14listINS3_4pairIPNS_11AnalysisKeyENS3_10unique_ptrINS_6detail21AnalysisResultConceptIS1_NS_15AnalysisManagerIS1_JEE11InvalidatorEEENS3_14default_deleteISE_EEEEEENS3_9allocatorISI_EEEENS_12DenseMapInfoIS2_vEENS9_12DenseMapPairIS2_SL_EEED2Ev, symObjAddr: 0x9764, symBinAddr: 0x10000D2B8, symSize: 0xEC }
  - { offset: 0x1FD651, size: 0x8, addend: 0x0, symName: __ZN4llvm8DenseMapIPNS_13LazyCallGraph3SCCENSt3__14listINS4_4pairIPNS_11AnalysisKeyENS4_10unique_ptrINS_6detail21AnalysisResultConceptIS2_NS_15AnalysisManagerIS2_JRS1_EE11InvalidatorEEENS4_14default_deleteISG_EEEEEENS4_9allocatorISK_EEEENS_12DenseMapInfoIS3_vEENSA_12DenseMapPairIS3_SN_EEED2Ev, symObjAddr: 0x9924, symBinAddr: 0x10000D478, symSize: 0xEC }
  - { offset: 0x1FDF38, size: 0x8, addend: 0x0, symName: __ZN4llvm8DenseMapIPNS_6ModuleENSt3__14listINS3_4pairIPNS_11AnalysisKeyENS3_10unique_ptrINS_6detail21AnalysisResultConceptIS1_NS_15AnalysisManagerIS1_JEE11InvalidatorEEENS3_14default_deleteISE_EEEEEENS3_9allocatorISI_EEEENS_12DenseMapInfoIS2_vEENS9_12DenseMapPairIS2_SL_EEED2Ev, symObjAddr: 0x9AE4, symBinAddr: 0x10000D638, symSize: 0xEC }
  - { offset: 0x1FF711, size: 0x8, addend: 0x0, symName: __ZN4llvm9StringMapINSt3__113unordered_mapINS1_4pairIyyEEfNS_9pair_hashIyyEENS1_8equal_toIS4_EENS1_9allocatorINS3_IKS4_fEEEEEENS_15MallocAllocatorEED2Ev, symObjAddr: 0xA21C, symBinAddr: 0x10000DD70, symSize: 0xC0 }
  - { offset: 0x1FFC18, size: 0x8, addend: 0x0, symName: __ZN4llvm9StringMapINS_11SmallVectorINSt3__110unique_ptrINS_5TimerENS2_14default_deleteIS4_EEEELj4EEENS_15MallocAllocatorEED2Ev, symObjAddr: 0xA2DC, symBinAddr: 0x10000DE30, symSize: 0xE0 }
  - { offset: 0x200527, size: 0x8, addend: 0x0, symName: __ZN4llvm19InstructionWorklistC2EOS0_, symObjAddr: 0xA548, symBinAddr: 0x10000E09C, symSize: 0x154 }
  - { offset: 0x200FFB, size: 0x8, addend: 0x0, symName: __ZN4llvm15SmallVectorImplIPNS_11InstructionEEaSEOS3_, symObjAddr: 0xA6D4, symBinAddr: 0x10000E228, symSize: 0x1A4 }
  - { offset: 0x201618, size: 0x8, addend: 0x0, symName: __ZN4llvm8DenseSetIPNS_11InstructionENS_12DenseMapInfoIS2_vEEED1Ev, symObjAddr: 0xA878, symBinAddr: 0x10000E3CC, symSize: 0x38 }
  - { offset: 0x20162B, size: 0x8, addend: 0x0, symName: __ZN4llvm8DenseSetIPNS_11InstructionENS_12DenseMapInfoIS2_vEEED1Ev, symObjAddr: 0xA878, symBinAddr: 0x10000E3CC, symSize: 0x38 }
  - { offset: 0x2016C6, size: 0x8, addend: 0x0, symName: __ZN4llvm8DenseMapIPNS_11InstructionEjNS_12DenseMapInfoIS2_vEENS_6detail12DenseMapPairIS2_jEEED1Ev, symObjAddr: 0xA69C, symBinAddr: 0x10000E1F0, symSize: 0x38 }
  - { offset: 0x2018D8, size: 0x8, addend: 0x0, symName: __ZN4llvm6detail9PassModelINS_8FunctionENS_15InstCombinePassENS_15AnalysisManagerIS2_JEEEJEED1Ev, symObjAddr: 0xA8B0, symBinAddr: 0x10000E404, symSize: 0x88 }
  - { offset: 0x201CA6, size: 0x8, addend: 0x0, symName: __ZN4llvm6detail9PassModelINS_8FunctionENS_15InstCombinePassENS_15AnalysisManagerIS2_JEEEJEED0Ev, symObjAddr: 0xA938, symBinAddr: 0x10000E48C, symSize: 0x8C }
  - { offset: 0x20207A, size: 0x8, addend: 0x0, symName: __ZN4llvm6detail9PassModelINS_8FunctionENS_15InstCombinePassENS_15AnalysisManagerIS2_JEEEJEE3runERS2_RS5_, symObjAddr: 0xA9C4, symBinAddr: 0x10000E518, symSize: 0x8 }
  - { offset: 0x2020BD, size: 0x8, addend: 0x0, symName: __ZN4llvm6detail9PassModelINS_8FunctionENS_15InstCombinePassENS_15AnalysisManagerIS2_JEEEJEE13printPipelineERNS_11raw_ostreamENS_12function_refIFNS_9StringRefESA_EEE, symObjAddr: 0xA9CC, symBinAddr: 0x10000E520, symSize: 0x8 }
  - { offset: 0x2020FE, size: 0x8, addend: 0x0, symName: __ZNK4llvm6detail9PassModelINS_8FunctionENS_15InstCombinePassENS_15AnalysisManagerIS2_JEEEJEE4nameEv, symObjAddr: 0xA9D4, symBinAddr: 0x10000E528, symSize: 0x4 }
  - { offset: 0x202126, size: 0x8, addend: 0x0, symName: __ZNK4llvm6detail9PassModelINS_8FunctionENS_15InstCombinePassENS_15AnalysisManagerIS2_JEEEJEE4nameEv, symObjAddr: 0xA9D4, symBinAddr: 0x10000E528, symSize: 0x4 }
  - { offset: 0x202131, size: 0x8, addend: 0x0, symName: __ZN4llvm13PassInfoMixinINS_15InstCombinePassEE4nameEv, symObjAddr: 0xA9E0, symBinAddr: 0x10000E534, symSize: 0x128 }
  - { offset: 0x2023E8, size: 0x8, addend: 0x0, symName: __ZN4llvm6detail9PassModelINS_8FunctionENS_15ReassociatePassENS_15AnalysisManagerIS2_JEEEJEEC1ES3_, symObjAddr: 0xAB08, symBinAddr: 0x10000E65C, symSize: 0x34 }
  - { offset: 0x2023FB, size: 0x8, addend: 0x0, symName: __ZNK4llvm6detail9PassModelINS_8FunctionENS_15InstCombinePassENS_15AnalysisManagerIS2_JEEEJEE10isRequiredEv, symObjAddr: 0xA9D8, symBinAddr: 0x10000E52C, symSize: 0x8 }
  - { offset: 0x202B64, size: 0x8, addend: 0x0, symName: __ZN4llvm12DenseMapBaseINS_8DenseMapINSt3__14pairIPNS_5ValueES5_EENS_15ReassociatePass12PairMapValueENS_12DenseMapInfoIS6_vEENS_6detail12DenseMapPairIS6_S8_EEEES6_S8_SA_SD_E10destroyAllEv, symObjAddr: 0xACA0, symBinAddr: 0x10000E7F4, symSize: 0xC0 }
  - { offset: 0x20300C, size: 0x8, addend: 0x0, symName: __ZNSt3__15dequeIN4llvm11AssertingVHINS1_11InstructionEEENS_9allocatorIS4_EEED2B8ne190102Ev, symObjAddr: 0xAD60, symBinAddr: 0x10000E8B4, symSize: 0xD8 }
  - { offset: 0x2034E4, size: 0x8, addend: 0x0, symName: __ZN4llvm6detail9PassModelINS_8FunctionENS_15ReassociatePassENS_15AnalysisManagerIS2_JEEEJEED1Ev, symObjAddr: 0xAE38, symBinAddr: 0x10000E98C, symSize: 0x34 }
  - { offset: 0x20356D, size: 0x8, addend: 0x0, symName: __ZN4llvm6detail9PassModelINS_8FunctionENS_15ReassociatePassENS_15AnalysisManagerIS2_JEEEJEED0Ev, symObjAddr: 0xAE6C, symBinAddr: 0x10000E9C0, symSize: 0x38 }
  - { offset: 0x203602, size: 0x8, addend: 0x0, symName: __ZN4llvm6detail9PassModelINS_8FunctionENS_15ReassociatePassENS_15AnalysisManagerIS2_JEEEJEE3runERS2_RS5_, symObjAddr: 0xAEA4, symBinAddr: 0x10000E9F8, symSize: 0x8 }
  - { offset: 0x2036B9, size: 0x8, addend: 0x0, symName: __ZN4llvm6detail9PassModelINS_8FunctionENS_15ReassociatePassENS_15AnalysisManagerIS2_JEEEJEE13printPipelineERNS_11raw_ostreamENS_12function_refIFNS_9StringRefESA_EEE, symObjAddr: 0xAEAC, symBinAddr: 0x10000EA00, symSize: 0x98 }
  - { offset: 0x203791, size: 0x8, addend: 0x0, symName: __ZN4llvm13PassInfoMixinINS_15ReassociatePassEE4nameEv, symObjAddr: 0xAF50, symBinAddr: 0x10000EAA4, symSize: 0x128 }
  - { offset: 0x203A48, size: 0x8, addend: 0x0, symName: __ZN4llvm15ReassociatePassD2Ev, symObjAddr: 0xB078, symBinAddr: 0x10000EBCC, symSize: 0x2B4 }
  - { offset: 0x203A5B, size: 0x8, addend: 0x0, symName: __ZNK4llvm6detail9PassModelINS_8FunctionENS_15ReassociatePassENS_15AnalysisManagerIS2_JEEEJEE4nameEv, symObjAddr: 0xAF44, symBinAddr: 0x10000EA98, symSize: 0x4 }
  - { offset: 0x203A83, size: 0x8, addend: 0x0, symName: __ZNK4llvm6detail9PassModelINS_8FunctionENS_15ReassociatePassENS_15AnalysisManagerIS2_JEEEJEE4nameEv, symObjAddr: 0xAF44, symBinAddr: 0x10000EA98, symSize: 0x4 }
  - { offset: 0x203A8E, size: 0x8, addend: 0x0, symName: __ZNK4llvm6detail9PassModelINS_8FunctionENS_15ReassociatePassENS_15AnalysisManagerIS2_JEEEJEE10isRequiredEv, symObjAddr: 0xAF48, symBinAddr: 0x10000EA9C, symSize: 0x8 }
  - { offset: 0x2041D5, size: 0x8, addend: 0x0, symName: __ZN4llvm15SmallVectorImplIPNS_10BasicBlockEEaSEOS3_, symObjAddr: 0xB7BC, symBinAddr: 0x10000F310, symSize: 0x1A4 }
  - { offset: 0x2047F2, size: 0x8, addend: 0x0, symName: __ZN4llvm8DenseMapIjNS_7GVNPass9LeaderMap14LeaderListNodeENS_12DenseMapInfoIjvEENS_6detail12DenseMapPairIjS3_EEED1Ev, symObjAddr: 0xB960, symBinAddr: 0x10000F4B4, symSize: 0x38 }
  - { offset: 0x204805, size: 0x8, addend: 0x0, symName: __ZN4llvm20BumpPtrAllocatorImplINS_15MallocAllocatorELm4096ELm4096ELm128EEC2EOS2_, symObjAddr: 0xB998, symBinAddr: 0x10000F4EC, symSize: 0xD4 }
  - { offset: 0x204B3F, size: 0x8, addend: 0x0, symName: __ZN4llvm13SmallDenseMapIPNS_5ValueEjLj4ENS_12DenseMapInfoIS2_vEENS_6detail12DenseMapPairIS2_jEEE4swapERS8_, symObjAddr: 0xBFA8, symBinAddr: 0x10000FAFC, symSize: 0x494 }
  - { offset: 0x204F9D, size: 0x8, addend: 0x0, symName: __ZN4llvm15SmallVectorImplINSt3__14pairIPNS_5ValueES4_EEEaSEOS6_, symObjAddr: 0xC43C, symBinAddr: 0x10000FF90, symSize: 0x2CC }
  - { offset: 0x204FB1, size: 0x8, addend: 0x0, symName: __ZN4llvm15SmallVectorImplINSt3__14pairIPNS_5ValueES4_EEEaSEOS6_, symObjAddr: 0xC43C, symBinAddr: 0x10000FF90, symSize: 0x2CC }
  - { offset: 0x2054EF, size: 0x8, addend: 0x0, symName: __ZN4llvm15SmallVectorImplINSt3__14pairIPNS_11InstructionEjEEEaSEOS6_, symObjAddr: 0xC708, symBinAddr: 0x10001025C, symSize: 0x1B0 }
  - { offset: 0x205502, size: 0x8, addend: 0x0, symName: __ZN4llvm15SmallVectorImplINSt3__14pairIPNS_11InstructionEjEEEaSEOS6_, symObjAddr: 0xC708, symBinAddr: 0x10001025C, symSize: 0x1B0 }
  - { offset: 0x205A1A, size: 0x8, addend: 0x0, symName: __ZN4llvm20BumpPtrAllocatorImplINS_15MallocAllocatorELm4096ELm4096ELm128EED2Ev, symObjAddr: 0xC8B8, symBinAddr: 0x10001040C, symSize: 0xDC }
  - { offset: 0x205A2D, size: 0x8, addend: 0x0, symName: __ZN4llvm8DenseMapINS_11AssertingVHINS_10BasicBlockEEEjNS_12DenseMapInfoIS3_vEENS_6detail12DenseMapPairIS3_jEEED1Ev, symObjAddr: 0xB640, symBinAddr: 0x10000F194, symSize: 0x38 }
  - { offset: 0x205A7E, size: 0x8, addend: 0x0, symName: __ZN4llvm14SmallMapVectorIPNS_5ValueES2_Lj4EED1Ev, symObjAddr: 0xB678, symBinAddr: 0x10000F1CC, symSize: 0x80 }
  - { offset: 0x205C73, size: 0x8, addend: 0x0, symName: __ZN4llvm13SmallDenseMapIPNS_5ValueEjLj4ENS_12DenseMapInfoIS2_vEENS_6detail12DenseMapPairIS2_jEEED1Ev, symObjAddr: 0xBF38, symBinAddr: 0x10000FA8C, symSize: 0x70 }
  - { offset: 0x205D26, size: 0x8, addend: 0x0, symName: __ZN4llvm8DenseSetIPNS_10BasicBlockENS_12DenseMapInfoIS2_vEEED1Ev, symObjAddr: 0xB784, symBinAddr: 0x10000F2D8, symSize: 0x38 }
  - { offset: 0x205DC1, size: 0x8, addend: 0x0, symName: __ZN4llvm7GVNPass9LeaderMapD1Ev, symObjAddr: 0xB6F8, symBinAddr: 0x10000F24C, symSize: 0x40 }
  - { offset: 0x205E68, size: 0x8, addend: 0x0, symName: __ZN4llvm8DenseMapIjNS_7GVNPass9LeaderMap14LeaderListNodeENS_12DenseMapInfoIjvEENS_6detail12DenseMapPairIjS3_EEED1Ev, symObjAddr: 0xB960, symBinAddr: 0x10000F4B4, symSize: 0x38 }
  - { offset: 0x20604C, size: 0x8, addend: 0x0, symName: __ZN4llvm20BumpPtrAllocatorImplINS_15MallocAllocatorELm4096ELm4096ELm128EED2Ev, symObjAddr: 0xC8B8, symBinAddr: 0x10001040C, symSize: 0xDC }
  - { offset: 0x20683F, size: 0x8, addend: 0x0, symName: __ZN4llvm15SmallVectorImplIPvEaSEOS2_, symObjAddr: 0xBA6C, symBinAddr: 0x10000F5C0, symSize: 0x1A4 }
  - { offset: 0x206E5C, size: 0x8, addend: 0x0, symName: __ZN4llvm15SmallVectorImplINSt3__14pairIPvmEEEaSEOS5_, symObjAddr: 0xBC10, symBinAddr: 0x10000F764, symSize: 0x328 }
  - { offset: 0x206E6F, size: 0x8, addend: 0x0, symName: __ZN4llvm15SmallVectorImplINSt3__14pairIPvmEEEaSEOS5_, symObjAddr: 0xBC10, symBinAddr: 0x10000F764, symSize: 0x328 }
  - { offset: 0x2073AF, size: 0x8, addend: 0x0, symName: __ZN4llvm13SmallDenseMapIPNS_5ValueEjLj4ENS_12DenseMapInfoIS2_vEENS_6detail12DenseMapPairIS2_jEEED1Ev, symObjAddr: 0xBF38, symBinAddr: 0x10000FA8C, symSize: 0x70 }
  - { offset: 0x207D0E, size: 0x8, addend: 0x0, symName: __ZN4llvm6detail9PassModelINS_8FunctionENS_7GVNPassENS_15AnalysisManagerIS2_JEEEJEED1Ev, symObjAddr: 0xC994, symBinAddr: 0x1000104E8, symSize: 0x34 }
  - { offset: 0x207D97, size: 0x8, addend: 0x0, symName: __ZN4llvm6detail9PassModelINS_8FunctionENS_7GVNPassENS_15AnalysisManagerIS2_JEEEJEED0Ev, symObjAddr: 0xC9C8, symBinAddr: 0x10001051C, symSize: 0x38 }
  - { offset: 0x207E2C, size: 0x8, addend: 0x0, symName: __ZN4llvm6detail9PassModelINS_8FunctionENS_7GVNPassENS_15AnalysisManagerIS2_JEEEJEE3runERS2_RS5_, symObjAddr: 0xCA00, symBinAddr: 0x100010554, symSize: 0x8 }
  - { offset: 0x207E6F, size: 0x8, addend: 0x0, symName: __ZN4llvm6detail9PassModelINS_8FunctionENS_7GVNPassENS_15AnalysisManagerIS2_JEEEJEE13printPipelineERNS_11raw_ostreamENS_12function_refIFNS_9StringRefESA_EEE, symObjAddr: 0xCA08, symBinAddr: 0x10001055C, symSize: 0x8 }
  - { offset: 0x207EB0, size: 0x8, addend: 0x0, symName: __ZNK4llvm6detail9PassModelINS_8FunctionENS_7GVNPassENS_15AnalysisManagerIS2_JEEEJEE4nameEv, symObjAddr: 0xCA10, symBinAddr: 0x100010564, symSize: 0x4 }
  - { offset: 0x207ED8, size: 0x8, addend: 0x0, symName: __ZNK4llvm6detail9PassModelINS_8FunctionENS_7GVNPassENS_15AnalysisManagerIS2_JEEEJEE4nameEv, symObjAddr: 0xCA10, symBinAddr: 0x100010564, symSize: 0x4 }
  - { offset: 0x207EE3, size: 0x8, addend: 0x0, symName: __ZN4llvm13PassInfoMixinINS_7GVNPassEE4nameEv, symObjAddr: 0xCA1C, symBinAddr: 0x100010570, symSize: 0x128 }
  - { offset: 0x20819A, size: 0x8, addend: 0x0, symName: __ZN4llvm7GVNPassD2Ev, symObjAddr: 0xCB44, symBinAddr: 0x100010698, symSize: 0x114 }
  - { offset: 0x2081AD, size: 0x8, addend: 0x0, symName: __ZNK4llvm6detail9PassModelINS_8FunctionENS_7GVNPassENS_15AnalysisManagerIS2_JEEEJEE10isRequiredEv, symObjAddr: 0xCA14, symBinAddr: 0x100010568, symSize: 0x8 }
  - { offset: 0x2082AC, size: 0x8, addend: 0x0, symName: __ZN4llvm6detail9PassModelINS_8FunctionENS_15SimplifyCFGPassENS_15AnalysisManagerIS2_JEEEJEED1Ev, symObjAddr: 0xCC58, symBinAddr: 0x1000107AC, symSize: 0x4 }
  - { offset: 0x2082D7, size: 0x8, addend: 0x0, symName: __ZN4llvm6detail9PassModelINS_8FunctionENS_15SimplifyCFGPassENS_15AnalysisManagerIS2_JEEEJEED0Ev, symObjAddr: 0xCC5C, symBinAddr: 0x1000107B0, symSize: 0x8 }
  - { offset: 0x208302, size: 0x8, addend: 0x0, symName: __ZN4llvm6detail9PassModelINS_8FunctionENS_15SimplifyCFGPassENS_15AnalysisManagerIS2_JEEEJEE3runERS2_RS5_, symObjAddr: 0xCC64, symBinAddr: 0x1000107B8, symSize: 0x8 }
  - { offset: 0x208345, size: 0x8, addend: 0x0, symName: __ZN4llvm6detail9PassModelINS_8FunctionENS_15SimplifyCFGPassENS_15AnalysisManagerIS2_JEEEJEE13printPipelineERNS_11raw_ostreamENS_12function_refIFNS_9StringRefESA_EEE, symObjAddr: 0xCC6C, symBinAddr: 0x1000107C0, symSize: 0x8 }
  - { offset: 0x208386, size: 0x8, addend: 0x0, symName: __ZNK4llvm6detail9PassModelINS_8FunctionENS_15SimplifyCFGPassENS_15AnalysisManagerIS2_JEEEJEE4nameEv, symObjAddr: 0xCC74, symBinAddr: 0x1000107C8, symSize: 0x4 }
  - { offset: 0x2083AE, size: 0x8, addend: 0x0, symName: __ZNK4llvm6detail9PassModelINS_8FunctionENS_15SimplifyCFGPassENS_15AnalysisManagerIS2_JEEEJEE4nameEv, symObjAddr: 0xCC74, symBinAddr: 0x1000107C8, symSize: 0x4 }
  - { offset: 0x2083B9, size: 0x8, addend: 0x0, symName: __ZN4llvm13PassInfoMixinINS_15SimplifyCFGPassEE4nameEv, symObjAddr: 0xCC80, symBinAddr: 0x1000107D4, symSize: 0x128 }
  - { offset: 0x208670, size: 0x8, addend: 0x0, symName: __ZN4llvm11PassBuilderD2Ev, symObjAddr: 0xCDA8, symBinAddr: 0x1000108FC, symSize: 0xA64 }
  - { offset: 0x208683, size: 0x8, addend: 0x0, symName: __ZNK4llvm6detail9PassModelINS_8FunctionENS_15SimplifyCFGPassENS_15AnalysisManagerIS2_JEEEJEE10isRequiredEv, symObjAddr: 0xCC78, symBinAddr: 0x1000107CC, symSize: 0x8 }
  - { offset: 0x20A0D2, size: 0x8, addend: 0x0, symName: __ZNSt3__16vectorINS_12basic_stringIcNS_11char_traitsIcEENS_9allocatorIcEEEENS4_IS6_EEE21__push_back_slow_pathIRKS6_EEPS6_OT_, symObjAddr: 0xDFA4, symBinAddr: 0x100011AF8, symSize: 0x160 }
  - { offset: 0x20A7CF, size: 0x8, addend: 0x0, symName: __ZL12ParsePrimaryv, symObjAddr: 0xE4EC, symBinAddr: 0x100012040, symSize: 0xD6C }
  - { offset: 0x20E5A4, size: 0x8, addend: 0x0, symName: __ZL13ParseBinOpRHSiNSt3__110unique_ptrI7ExprASTNS_14default_deleteIS1_EEEE, symObjAddr: 0xE18C, symBinAddr: 0x100011CE0, symSize: 0x360 }
  - { offset: 0x20F6B7, size: 0x8, addend: 0x0, symName: __ZNKSt3__16vectorINS_12basic_stringIcNS_11char_traitsIcEENS_9allocatorIcEEEENS4_IS6_EEE20__throw_length_errorB8ne190102Ev, symObjAddr: 0xE178, symBinAddr: 0x100011CCC, symSize: 0x14 }
  - { offset: 0x20F6E1, size: 0x8, addend: 0x0, symName: __ZL13ParseBinOpRHSiNSt3__110unique_ptrI7ExprASTNS_14default_deleteIS1_EEEE, symObjAddr: 0xE18C, symBinAddr: 0x100011CE0, symSize: 0x360 }
  - { offset: 0x20F6EC, size: 0x8, addend: 0x0, symName: __ZNSt3__114__split_bufferINS_12basic_stringIcNS_11char_traitsIcEENS_9allocatorIcEEEERNS4_IS6_EEED1Ev, symObjAddr: 0xE104, symBinAddr: 0x100011C58, symSize: 0x74 }
  - { offset: 0x210D5C, size: 0x8, addend: 0x0, symName: __ZNKSt3__16vectorINS_4pairINS_12basic_stringIcNS_11char_traitsIcEENS_9allocatorIcEEEENS_10unique_ptrI7ExprASTNS_14default_deleteIS9_EEEEEENS5_ISD_EEE20__throw_length_errorB8ne190102Ev, symObjAddr: 0xF518, symBinAddr: 0x10001306C, symSize: 0x14 }
  - { offset: 0x210D86, size: 0x8, addend: 0x0, symName: __ZNSt3__110unique_ptrI12PrototypeASTNS_14default_deleteIS1_EEE5resetB8ne190102EPS1_, symObjAddr: 0xF52C, symBinAddr: 0x100013080, symSize: 0xCC }
  - { offset: 0x210D91, size: 0x8, addend: 0x0, symName: __ZNKSt3__16vectorINS_10unique_ptrI7ExprASTNS_14default_deleteIS2_EEEENS_9allocatorIS5_EEE20__throw_length_errorB8ne190102Ev, symObjAddr: 0xF2D4, symBinAddr: 0x100012E28, symSize: 0x14 }
  - { offset: 0x210DBB, size: 0x8, addend: 0x0, symName: __ZNSt3__111make_uniqueB8ne190102I10ForExprASTJRNS_12basic_stringIcNS_11char_traitsIcEENS_9allocatorIcEEEENS_10unique_ptrI7ExprASTNS_14default_deleteISA_EEEESD_SD_SD_EEENS_11__unique_ifIT_E15__unique_singleEDpOT0_, symObjAddr: 0xF2E8, symBinAddr: 0x100012E3C, symSize: 0x138 }
  - { offset: 0x210DC6, size: 0x8, addend: 0x0, symName: __ZNSt3__16vectorINS_10unique_ptrI7ExprASTNS_14default_deleteIS2_EEEENS_9allocatorIS5_EEED1B8ne190102Ev, symObjAddr: 0xF258, symBinAddr: 0x100012DAC, symSize: 0x7C }
  - { offset: 0x211069, size: 0x8, addend: 0x0, symName: __ZNSt3__14pairINS_12basic_stringIcNS_11char_traitsIcEENS_9allocatorIcEEEENS_10unique_ptrI7ExprASTNS_14default_deleteIS8_EEEEED1Ev, symObjAddr: 0xF420, symBinAddr: 0x100012F74, symSize: 0x60 }
  - { offset: 0x21128D, size: 0x8, addend: 0x0, symName: __ZNSt3__16vectorINS_4pairINS_12basic_stringIcNS_11char_traitsIcEENS_9allocatorIcEEEENS_10unique_ptrI7ExprASTNS_14default_deleteIS9_EEEEEENS5_ISD_EEED1B8ne190102Ev, symObjAddr: 0xF480, symBinAddr: 0x100012FD4, symSize: 0x98 }
  - { offset: 0x211D6A, size: 0x8, addend: 0x0, symName: __ZNSt3__110shared_ptrIN4llvm3orc17ThreadSafeContext5StateEED1B8ne190102Ev, symObjAddr: 0xF7C8, symBinAddr: 0x10001331C, symSize: 0x5C }
  - { offset: 0x211E3F, size: 0x8, addend: 0x0, symName: __ZNSt3__120__shared_ptr_emplaceIN4llvm3orc17ThreadSafeContext5StateENS_9allocatorIS4_EEED1Ev, symObjAddr: 0xF824, symBinAddr: 0x100013378, symSize: 0x14 }
  - { offset: 0x211E63, size: 0x8, addend: 0x0, symName: __ZNSt3__120__shared_ptr_emplaceIN4llvm3orc17ThreadSafeContext5StateENS_9allocatorIS4_EEED1Ev, symObjAddr: 0xF824, symBinAddr: 0x100013378, symSize: 0x14 }
  - { offset: 0x211E9A, size: 0x8, addend: 0x0, symName: __ZNSt3__120__shared_ptr_emplaceIN4llvm3orc17ThreadSafeContext5StateENS_9allocatorIS4_EEED0Ev, symObjAddr: 0xF838, symBinAddr: 0x10001338C, symSize: 0x28 }
  - { offset: 0x211FCC, size: 0x8, addend: 0x0, symName: __ZNSt3__120__shared_ptr_emplaceIN4llvm3orc17ThreadSafeContext5StateENS_9allocatorIS4_EEE16__on_zero_sharedEv, symObjAddr: 0xF860, symBinAddr: 0x1000133B4, symSize: 0x44 }
  - { offset: 0x212128, size: 0x8, addend: 0x0, symName: __ZNSt3__120__shared_ptr_emplaceIN4llvm3orc17ThreadSafeContext5StateENS_9allocatorIS4_EEE21__on_zero_shared_weakEv, symObjAddr: 0xF8A4, symBinAddr: 0x1000133F8, symSize: 0x8 }
  - { offset: 0x21215D, size: 0x8, addend: 0x0, symName: __ZNSt3__120__shared_ptr_emplaceIN4llvm3orc17ThreadSafeContext5StateENS_9allocatorIS4_EEE21__on_zero_shared_weakEv, symObjAddr: 0xF8A4, symBinAddr: 0x1000133F8, symSize: 0x8 }
  - { offset: 0x212182, size: 0x8, addend: 0x0, symName: __ZNSt3__120__shared_ptr_emplaceIN4llvm3orc17ThreadSafeContext5StateENS_9allocatorIS4_EEE21__on_zero_shared_weakEv, symObjAddr: 0xF8A4, symBinAddr: 0x1000133F8, symSize: 0x8 }
  - { offset: 0x2121A7, size: 0x8, addend: 0x0, symName: __ZNSt3__120__shared_ptr_emplaceIN4llvm3orc17ThreadSafeContext5StateENS_9allocatorIS4_EEE21__on_zero_shared_weakEv, symObjAddr: 0xF8A4, symBinAddr: 0x1000133F8, symSize: 0x8 }
  - { offset: 0x2121D2, size: 0x8, addend: 0x0, symName: __ZNSt3__120__shared_ptr_emplaceIN4llvm3orc17ThreadSafeContext5StateENS_9allocatorIS4_EEE21__on_zero_shared_weakEv, symObjAddr: 0xF8A4, symBinAddr: 0x1000133F8, symSize: 0x8 }
  - { offset: 0x2121F8, size: 0x8, addend: 0x0, symName: __ZNSt3__120__shared_ptr_emplaceIN4llvm3orc17ThreadSafeContext5StateENS_9allocatorIS4_EEE21__on_zero_shared_weakEv, symObjAddr: 0xF8A4, symBinAddr: 0x1000133F8, symSize: 0x8 }
  - { offset: 0x21261D, size: 0x8, addend: 0x0, symName: __ZN4llvm3orc15SymbolStringPtrD1Ev, symObjAddr: 0xFD70, symBinAddr: 0x1000138C4, symSize: 0x64 }
  - { offset: 0x2128FB, size: 0x8, addend: 0x0, symName: __ZNSt3__110shared_ptrIN4llvm12MemoryBufferEED1B8ne190102Ev, symObjAddr: 0xFEC0, symBinAddr: 0x100013A14, symSize: 0x5C }
  - { offset: 0x21321F, size: 0x8, addend: 0x0, symName: __ZNSt3__110unique_ptrINS_11__tree_nodeINS_12__value_typeINS_12basic_stringIcNS_11char_traitsIcEENS_9allocatorIcEEEEPN4llvm10AllocaInstEEEPvEENS_22__tree_node_destructorINS6_ISE_EEEEED1B8ne190102Ev, symObjAddr: 0x10694, symBinAddr: 0x1000141E8, symSize: 0x6C }
  - { offset: 0x213C3B, size: 0x8, addend: 0x0, symName: __ZNSt3__110unique_ptrINS_11__tree_nodeINS_12__value_typeINS_12basic_stringIcNS_11char_traitsIcEENS_9allocatorIcEEEENS0_I12PrototypeASTNS_14default_deleteIS9_EEEEEEPvEENS_22__tree_node_destructorINS6_ISF_EEEEED1B8ne190102Ev, symObjAddr: 0x10E5C, symBinAddr: 0x1000149B0, symSize: 0x68 }
...
